---
triple:          'arm64-apple-darwin'
binary-path:     '/Users/jb/GitHubRepositories/CS3321GroupProject/main'
relocations:
  - { offsetInCU: 0x26, offset: 0x26, size: 0x8, addend: 0x0, symName: _main, symObjAddr: 0x0, symBinAddr: 0x1000022FC, symSize: 0x2C }
  - { offsetInCU: 0x2C72, offset: 0x2C72, size: 0x8, addend: 0x0, symName: _main, symObjAddr: 0x0, symBinAddr: 0x1000022FC, symSize: 0x2C }
  - { offsetInCU: 0x2EF8, offset: 0x5B83, size: 0x8, addend: 0x0, symName: __ZNSt3__119__debug_db_insert_cB7v160006INS_12basic_stringIcNS_11char_traitsIcEENS_9allocatorIcEEEEEEvPT_, symObjAddr: 0x330, symBinAddr: 0x100002658, symSize: 0x10 }
  - { offsetInCU: 0x2F29, offset: 0x5BB4, size: 0x8, addend: 0x0, symName: __ZNSt3__118__constexpr_strlenB7v160006EPKc, symObjAddr: 0x3FC, symBinAddr: 0x100002724, symSize: 0x24 }
  - { offsetInCU: 0x4FC7, offset: 0x7C52, size: 0x8, addend: 0x0, symName: __ZN9InventoryC2Ev, symObjAddr: 0x0, symBinAddr: 0x100002328, symSize: 0x3C }
  - { offsetInCU: 0x4FF6, offset: 0x7C81, size: 0x8, addend: 0x0, symName: __ZNSt3__112basic_stringIcNS_11char_traitsIcEENS_9allocatorIcEEEC1B7v160006IDnEEPKc, symObjAddr: 0x3C, symBinAddr: 0x100002364, symSize: 0x34 }
  - { offsetInCU: 0x5032, offset: 0x7CBD, size: 0x8, addend: 0x0, symName: __ZN9InventoryC1Ev, symObjAddr: 0x70, symBinAddr: 0x100002398, symSize: 0x2C }
  - { offsetInCU: 0x505C, offset: 0x7CE7, size: 0x8, addend: 0x0, symName: __ZN9InventoryC2ENSt3__112basic_stringIcNS0_11char_traitsIcEENS0_9allocatorIcEEEEjj, symObjAddr: 0x9C, symBinAddr: 0x1000023C4, symSize: 0x80 }
  - { offsetInCU: 0x50B1, offset: 0x7D3C, size: 0x8, addend: 0x0, symName: __ZNSt3__112basic_stringIcNS_11char_traitsIcEENS_9allocatorIcEEEC1B7v160006Ev, symObjAddr: 0x11C, symBinAddr: 0x100002444, symSize: 0x2C }
  - { offsetInCU: 0x50D9, offset: 0x7D64, size: 0x8, addend: 0x0, symName: __ZN9InventoryC1ENSt3__112basic_stringIcNS0_11char_traitsIcEENS0_9allocatorIcEEEEjj, symObjAddr: 0x148, symBinAddr: 0x100002470, symSize: 0x44 }
  - { offsetInCU: 0x512E, offset: 0x7DB9, size: 0x8, addend: 0x0, symName: __ZN9Inventory11setItemNameENSt3__112basic_stringIcNS0_11char_traitsIcEENS0_9allocatorIcEEEE, symObjAddr: 0x18C, symBinAddr: 0x1000024B4, symSize: 0x2C }
  - { offsetInCU: 0x5163, offset: 0x7DEE, size: 0x8, addend: 0x0, symName: __ZN9Inventory12setItemCountEj, symObjAddr: 0x1B8, symBinAddr: 0x1000024E0, symSize: 0x20 }
  - { offsetInCU: 0x5197, offset: 0x7E22, size: 0x8, addend: 0x0, symName: __ZN9Inventory16setItemThresholdEj, symObjAddr: 0x1D8, symBinAddr: 0x100002500, symSize: 0x20 }
  - { offsetInCU: 0x51CB, offset: 0x7E56, size: 0x8, addend: 0x0, symName: __ZNK9Inventory11getItemNameEv, symObjAddr: 0x1F8, symBinAddr: 0x100002520, symSize: 0x38 }
  - { offsetInCU: 0x51F1, offset: 0x7E7C, size: 0x8, addend: 0x0, symName: __ZNK9Inventory12getItemCountEv, symObjAddr: 0x230, symBinAddr: 0x100002558, symSize: 0x18 }
  - { offsetInCU: 0x5217, offset: 0x7EA2, size: 0x8, addend: 0x0, symName: __ZNK9Inventory16getItemThresholdEv, symObjAddr: 0x248, symBinAddr: 0x100002570, symSize: 0x18 }
  - { offsetInCU: 0x523D, offset: 0x7EC8, size: 0x8, addend: 0x0, symName: __ZNSt3__112basic_stringIcNS_11char_traitsIcEENS_9allocatorIcEEEC2B7v160006IDnEEPKc, symObjAddr: 0x260, symBinAddr: 0x100002588, symSize: 0x60 }
  - { offsetInCU: 0x527E, offset: 0x7F09, size: 0x8, addend: 0x0, symName: __ZNSt3__117__compressed_pairINS_12basic_stringIcNS_11char_traitsIcEENS_9allocatorIcEEE5__repES5_EC1B7v160006INS_18__default_init_tagESA_EEOT_OT0_, symObjAddr: 0x2C0, symBinAddr: 0x1000025E8, symSize: 0x3C }
  - { offsetInCU: 0x52D4, offset: 0x7F5F, size: 0x8, addend: 0x0, symName: __ZNSt3__111char_traitsIcE6lengthEPKc, symObjAddr: 0x2FC, symBinAddr: 0x100002624, symSize: 0x34 }
  - { offsetInCU: 0x52F6, offset: 0x7F81, size: 0x8, addend: 0x0, symName: __ZNSt3__117__compressed_pairINS_12basic_stringIcNS_11char_traitsIcEENS_9allocatorIcEEE5__repES5_EC2B7v160006INS_18__default_init_tagESA_EEOT_OT0_, symObjAddr: 0x340, symBinAddr: 0x100002668, symSize: 0x3C }
  - { offsetInCU: 0x534C, offset: 0x7FD7, size: 0x8, addend: 0x0, symName: __ZNSt3__122__compressed_pair_elemINS_12basic_stringIcNS_11char_traitsIcEENS_9allocatorIcEEE5__repELi0ELb0EEC2B7v160006ENS_18__default_init_tagE, symObjAddr: 0x37C, symBinAddr: 0x1000026A4, symSize: 0x14 }
  - { offsetInCU: 0x537E, offset: 0x8009, size: 0x8, addend: 0x0, symName: __ZNSt3__122__compressed_pair_elemINS_9allocatorIcEELi1ELb1EEC2B7v160006ENS_18__default_init_tagE, symObjAddr: 0x390, symBinAddr: 0x1000026B8, symSize: 0x2C }
  - { offsetInCU: 0x53B0, offset: 0x803B, size: 0x8, addend: 0x0, symName: __ZNSt3__19allocatorIcEC2B7v160006Ev, symObjAddr: 0x3BC, symBinAddr: 0x1000026E4, symSize: 0x2C }
  - { offsetInCU: 0x53D8, offset: 0x8063, size: 0x8, addend: 0x0, symName: __ZNSt3__116__non_trivial_ifILb1ENS_9allocatorIcEEEC2B7v160006Ev, symObjAddr: 0x3E8, symBinAddr: 0x100002710, symSize: 0x14 }
  - { offsetInCU: 0x5400, offset: 0x808B, size: 0x8, addend: 0x0, symName: __ZNSt3__112basic_stringIcNS_11char_traitsIcEENS_9allocatorIcEEEC2B7v160006Ev, symObjAddr: 0x42C, symBinAddr: 0x100002754, symSize: 0x50 }
  - { offsetInCU: 0x5428, offset: 0x80B3, size: 0x8, addend: 0x0, symName: __ZNSt3__112basic_stringIcNS_11char_traitsIcEENS_9allocatorIcEEE14__default_initB7v160006Ev, symObjAddr: 0x47C, symBinAddr: 0x1000027A4, symSize: 0x40 }
  - { offsetInCU: 0x544C, offset: 0x80D7, size: 0x8, addend: 0x0, symName: __ZNSt3__117__compressed_pairINS_12basic_stringIcNS_11char_traitsIcEENS_9allocatorIcEEE5__repES5_E5firstB7v160006Ev, symObjAddr: 0x4BC, symBinAddr: 0x1000027E4, symSize: 0x24 }
  - { offsetInCU: 0x5470, offset: 0x80FB, size: 0x8, addend: 0x0, symName: __ZNSt3__122__compressed_pair_elemINS_12basic_stringIcNS_11char_traitsIcEENS_9allocatorIcEEE5__repELi0ELb0EE5__getB7v160006Ev, symObjAddr: 0x4E0, symBinAddr: 0x100002808, symSize: 0x14 }
  - { offsetInCU: 0x4AFA, offset: 0xCC32, size: 0x8, addend: 0x0, symName: __ZN7PatientC2Ev, symObjAddr: 0x0, symBinAddr: 0x10000281C, symSize: 0xA0 }
  - { offsetInCU: 0x4B24, offset: 0xCC5C, size: 0x8, addend: 0x0, symName: __ZNSt3__112basic_stringIcNS_11char_traitsIcEENS_9allocatorIcEEEaSB7v160006EPKc, symObjAddr: 0xCC, symBinAddr: 0x1000028BC, symSize: 0x2C }
  - { offsetInCU: 0x4B57, offset: 0xCC8F, size: 0x8, addend: 0x0, symName: __ZN4UserD2Ev, symObjAddr: 0xF8, symBinAddr: 0x1000028E8, symSize: 0x64 }
  - { offsetInCU: 0x4B7F, offset: 0xCCB7, size: 0x8, addend: 0x0, symName: __ZN7PatientC1Ev, symObjAddr: 0x15C, symBinAddr: 0x10000294C, symSize: 0x2C }
  - { offsetInCU: 0x4BA9, offset: 0xCCE1, size: 0x8, addend: 0x0, symName: __ZN7PatientC2ERK4User, symObjAddr: 0x188, symBinAddr: 0x100002978, symSize: 0x90 }
  - { offsetInCU: 0x4BE1, offset: 0xCD19, size: 0x8, addend: 0x0, symName: __ZN4UserC2ERKS_, symObjAddr: 0x218, symBinAddr: 0x100002A08, symSize: 0x110 }
  - { offsetInCU: 0x4C18, offset: 0xCD50, size: 0x8, addend: 0x0, symName: __ZN7PatientC1ERK4User, symObjAddr: 0x35C, symBinAddr: 0x100002B18, symSize: 0x34 }
  - { offsetInCU: 0x4C50, offset: 0xCD88, size: 0x8, addend: 0x0, symName: __ZN7PatientC2ENSt3__112basic_stringIcNS0_11char_traitsIcEENS0_9allocatorIcEEEES6_S6_S6_jhbS6_P4Room, symObjAddr: 0x390, symBinAddr: 0x100002B4C, symSize: 0x14C }
  - { offsetInCU: 0x4CFD, offset: 0xCE35, size: 0x8, addend: 0x0, symName: __ZN7PatientC1ENSt3__112basic_stringIcNS0_11char_traitsIcEENS0_9allocatorIcEEEES6_S6_S6_jhbS6_P4Room, symObjAddr: 0x4DC, symBinAddr: 0x100002C98, symSize: 0x90 }
  - { offsetInCU: 0x4DAA, offset: 0xCEE2, size: 0x8, addend: 0x0, symName: __ZN7Patient15setHasInsuranceEb, symObjAddr: 0x56C, symBinAddr: 0x100002D28, symSize: 0x2C }
  - { offsetInCU: 0x4DDE, offset: 0xCF16, size: 0x8, addend: 0x0, symName: __ZN7Patient20setInsuranceProviderENSt3__112basic_stringIcNS0_11char_traitsIcEENS0_9allocatorIcEEEE, symObjAddr: 0x598, symBinAddr: 0x100002D54, symSize: 0x30 }
  - { offsetInCU: 0x4E13, offset: 0xCF4B, size: 0x8, addend: 0x0, symName: __ZN7Patient7setRoomER4Room, symObjAddr: 0x5C8, symBinAddr: 0x100002D84, symSize: 0x20 }
  - { offsetInCU: 0x4E47, offset: 0xCF7F, size: 0x8, addend: 0x0, symName: __ZNK7Patient15getHasInsuranceEv, symObjAddr: 0x5E8, symBinAddr: 0x100002DA4, symSize: 0x1C }
  - { offsetInCU: 0x4E6D, offset: 0xCFA5, size: 0x8, addend: 0x0, symName: __ZNK7Patient20getInsuranceProviderEv, symObjAddr: 0x604, symBinAddr: 0x100002DC0, symSize: 0x3C }
  - { offsetInCU: 0x4E93, offset: 0xCFCB, size: 0x8, addend: 0x0, symName: __ZN7Patient7getRoomEv, symObjAddr: 0x640, symBinAddr: 0x100002DFC, symSize: 0x18 }
  - { offsetInCU: 0x4EB9, offset: 0xCFF1, size: 0x8, addend: 0x0, symName: __ZN7PatientD1Ev, symObjAddr: 0x658, symBinAddr: 0x100002E14, symSize: 0x2C }
  - { offsetInCU: 0x4EE3, offset: 0xD01B, size: 0x8, addend: 0x0, symName: __ZN7PatientD0Ev, symObjAddr: 0x684, symBinAddr: 0x100002E40, symSize: 0x30 }
  - { offsetInCU: 0x4F0D, offset: 0xD045, size: 0x8, addend: 0x0, symName: __ZN4UserD1Ev, symObjAddr: 0x6B4, symBinAddr: 0x100002E70, symSize: 0x2C }
  - { offsetInCU: 0x4F35, offset: 0xD06D, size: 0x8, addend: 0x0, symName: __ZN4UserD0Ev, symObjAddr: 0x6E0, symBinAddr: 0x100002E9C, symSize: 0x30 }
  - { offsetInCU: 0x4F5D, offset: 0xD095, size: 0x8, addend: 0x0, symName: __ZN7PatientD2Ev, symObjAddr: 0x9A8, symBinAddr: 0x100002ECC, symSize: 0x48 }
  - { offsetInCU: 0x332E, offset: 0x10401, size: 0x8, addend: 0x0, symName: __ZNSt3__17advanceB7v160006IP9InventorymmvEEvRT_T0_, symObjAddr: 0x1D84, symBinAddr: 0x100004A98, symSize: 0x50 }
  - { offsetInCU: 0x4086, offset: 0x11159, size: 0x8, addend: 0x0, symName: __ZNSt3__119__debug_db_insert_cB7v160006INS_6vectorI9InventoryNS_9allocatorIS2_EEEEEEvPT_, symObjAddr: 0x574, symBinAddr: 0x100003288, symSize: 0x10 }
  - { offsetInCU: 0x40B7, offset: 0x1118A, size: 0x8, addend: 0x0, symName: __ZNSt3__122__make_exception_guardB7v160006INS_6vectorI9InventoryNS_9allocatorIS2_EEE16__destroy_vectorEEENS_28__exception_guard_exceptionsIT_EES8_, symObjAddr: 0x7D0, symBinAddr: 0x1000034E4, symSize: 0x40 }
  - { offsetInCU: 0x40EC, offset: 0x111BF, size: 0x8, addend: 0x0, symName: __ZNSt3__119__allocate_at_leastB7v160006INS_9allocatorI9InventoryEEEENS_19__allocation_resultINS_16allocator_traitsIT_E7pointerEEERS6_m, symObjAddr: 0xB74, symBinAddr: 0x100003888, symSize: 0x40 }
  - { offsetInCU: 0x412F, offset: 0x11202, size: 0x8, addend: 0x0, symName: __ZNSt3__13minB7v160006ImEERKT_S3_S3_, symObjAddr: 0xCB0, symBinAddr: 0x1000039C4, symSize: 0x2C }
  - { offsetInCU: 0x4373, offset: 0x11446, size: 0x8, addend: 0x0, symName: __ZNSt3__13minB7v160006ImNS_6__lessImmEEEERKT_S5_S5_T0_, symObjAddr: 0xD14, symBinAddr: 0x100003A28, symSize: 0x54 }
  - { offsetInCU: 0x4408, offset: 0x114DB, size: 0x8, addend: 0x0, symName: __ZNSt3__120__throw_length_errorB7v160006EPKc, symObjAddr: 0xDB8, symBinAddr: 0x100003ACC, symSize: 0x64 }
  - { offsetInCU: 0x4430, offset: 0x11503, size: 0x8, addend: 0x0, symName: __ZNSt3__117__libcpp_allocateB7v160006Emm, symObjAddr: 0xF28, symBinAddr: 0x100003C3C, symSize: 0x28 }
  - { offsetInCU: 0x446D, offset: 0x11540, size: 0x8, addend: 0x0, symName: __ZNSt3__121__libcpp_operator_newB7v160006IJmEEEPvDpT_, symObjAddr: 0xF50, symBinAddr: 0x100003C64, symSize: 0x24 }
  - { offsetInCU: 0x44A6, offset: 0x11579, size: 0x8, addend: 0x0, symName: __ZNSt3__112__to_addressB7v160006I9InventoryEEPT_S3_, symObjAddr: 0x106C, symBinAddr: 0x100003D80, symSize: 0x14 }
  - { offsetInCU: 0x44DB, offset: 0x115AE, size: 0x8, addend: 0x0, symName: __ZNSt3__130__uninitialized_allocator_copyB7v160006INS_9allocatorI9InventoryEEPS2_S4_S4_EET2_RT_T0_T1_S5_, symObjAddr: 0x111C, symBinAddr: 0x100003E30, symSize: 0xF4 }
  - { offsetInCU: 0x4579, offset: 0x1164C, size: 0x8, addend: 0x0, symName: __ZNSt3__122__make_exception_guardB7v160006INS_29_AllocatorDestroyRangeReverseINS_9allocatorI9InventoryEEPS3_EEEENS_28__exception_guard_exceptionsIT_EES8_, symObjAddr: 0x1280, symBinAddr: 0x100003F94, symSize: 0x4C }
  - { offsetInCU: 0x45AF, offset: 0x11682, size: 0x8, addend: 0x0, symName: __ZNSt3__119__allocator_destroyB7v160006INS_9allocatorI9InventoryEENS_16reverse_iteratorIPS2_EES6_EEvRT_T0_T1_, symObjAddr: 0x1584, symBinAddr: 0x100004298, symSize: 0x70 }
  - { offsetInCU: 0x4612, offset: 0x116E5, size: 0x8, addend: 0x0, symName: __ZNSt3__1neB7v160006IP9InventoryS2_EEbRKNS_16reverse_iteratorIT_EERKNS3_IT0_EE, symObjAddr: 0x1628, symBinAddr: 0x10000433C, symSize: 0x48 }
  - { offsetInCU: 0x465E, offset: 0x11731, size: 0x8, addend: 0x0, symName: __ZNSt3__112__to_addressB7v160006INS_16reverse_iteratorIP9InventoryEEvEENS_5decayIDTclsr19__to_address_helperIT_EE6__callclsr3stdE7declvalIRKS6_EEEEE4typeES8_, symObjAddr: 0x169C, symBinAddr: 0x1000043B0, symSize: 0x24 }
  - { offsetInCU: 0x46BD, offset: 0x11790, size: 0x8, addend: 0x0, symName: __ZNSt3__118__debug_db_erase_cB7v160006INS_6vectorI9InventoryNS_9allocatorIS2_EEEEEEvPT_, symObjAddr: 0x19E8, symBinAddr: 0x1000046FC, symSize: 0x10 }
  - { offsetInCU: 0x46EE, offset: 0x117C1, size: 0x8, addend: 0x0, symName: __ZNSt3__119__libcpp_deallocateB7v160006EPvmm, symObjAddr: 0x1B20, symBinAddr: 0x100004834, symSize: 0x30 }
  - { offsetInCU: 0x4736, offset: 0x11809, size: 0x8, addend: 0x0, symName: __ZNSt3__127__do_deallocate_handle_sizeB7v160006IJEEEvPvmDpT_, symObjAddr: 0x1B50, symBinAddr: 0x100004864, symSize: 0x28 }
  - { offsetInCU: 0x4774, offset: 0x11847, size: 0x8, addend: 0x0, symName: __ZNSt3__124__libcpp_operator_deleteB7v160006IJPvEEEvDpT_, symObjAddr: 0x1B78, symBinAddr: 0x10000488C, symSize: 0x24 }
  - { offsetInCU: 0x47A9, offset: 0x1187C, size: 0x8, addend: 0x0, symName: __ZNSt3__18distanceB7v160006IP9InventoryEENS_15iterator_traitsIT_E15difference_typeES4_S4_, symObjAddr: 0x1D58, symBinAddr: 0x100004A6C, symSize: 0x2C }
  - { offsetInCU: 0x47EC, offset: 0x118BF, size: 0x8, addend: 0x0, symName: __ZNSt3__14copyB7v160006IP9InventoryS2_EET0_T_S4_S3_, symObjAddr: 0x1DD4, symBinAddr: 0x100004AE8, symSize: 0x40 }
  - { offsetInCU: 0x4846, offset: 0x11919, size: 0x8, addend: 0x0, symName: __ZNSt3__125__debug_db_invalidate_allB7v160006INS_6vectorI9InventoryNS_9allocatorIS2_EEEEEEvPT_, symObjAddr: 0x1FB4, symBinAddr: 0x100004CC8, symSize: 0x10 }
  - { offsetInCU: 0x4877, offset: 0x1194A, size: 0x8, addend: 0x0, symName: __ZNSt3__110__distanceB7v160006IP9InventoryEENS_15iterator_traitsIT_E15difference_typeES4_S4_NS_26random_access_iterator_tagE, symObjAddr: 0x1FC4, symBinAddr: 0x100004CD8, symSize: 0x28 }
  - { offsetInCU: 0x48C4, offset: 0x11997, size: 0x8, addend: 0x0, symName: __ZNSt3__121__convert_to_integralB7v160006Em, symObjAddr: 0x1FEC, symBinAddr: 0x100004D00, symSize: 0x14 }
  - { offsetInCU: 0x48F0, offset: 0x119C3, size: 0x8, addend: 0x0, symName: __ZNSt3__19__advanceB7v160006IP9InventoryEEvRT_NS_15iterator_traitsIS3_E15difference_typeENS_26random_access_iterator_tagE, symObjAddr: 0x2000, symBinAddr: 0x100004D14, symSize: 0x28 }
  - { offsetInCU: 0x4939, offset: 0x11A0C, size: 0x8, addend: 0x0, symName: __ZNSt3__16__copyB7v160006INS_17_ClassicAlgPolicyEP9InventoryS3_S3_EENS_4pairIT0_T2_EES5_T1_S6_, symObjAddr: 0x2028, symBinAddr: 0x100004D3C, symSize: 0x44 }
  - { offsetInCU: 0x49A5, offset: 0x11A78, size: 0x8, addend: 0x0, symName: __ZNSt3__123__dispatch_copy_or_moveB7v160006INS_17_ClassicAlgPolicyENS_11__copy_loopIS1_EENS_14__copy_trivialEP9InventoryS6_S6_EENS_4pairIT2_T4_EES8_T3_S9_, symObjAddr: 0x206C, symBinAddr: 0x100004D80, symSize: 0x44 }
  - { offsetInCU: 0x4A23, offset: 0x11AF6, size: 0x8, addend: 0x0, symName: __ZNSt3__121__unwrap_and_dispatchB7v160006INS_10__overloadINS_11__copy_loopINS_17_ClassicAlgPolicyEEENS_14__copy_trivialEEEP9InventoryS8_S8_Li0EEENS_4pairIT0_T2_EESA_T1_SB_, symObjAddr: 0x20B0, symBinAddr: 0x100004DC4, symSize: 0xB4 }
  - { offsetInCU: 0x4AB1, offset: 0x11B84, size: 0x8, addend: 0x0, symName: __ZNSt3__114__unwrap_rangeB7v160006IP9InventoryS2_EENS_4pairIT0_S4_EET_S6_, symObjAddr: 0x2164, symBinAddr: 0x100004E78, symSize: 0x60 }
  - { offsetInCU: 0x4C2C, offset: 0x11CFF, size: 0x8, addend: 0x0, symName: __ZNSt3__113__unwrap_iterB7v160006IP9InventoryNS_18__unwrap_iter_implIS2_Lb1EEELi0EEEDTclsrT0_8__unwrapclsr3stdE7declvalIT_EEEES6_, symObjAddr: 0x224C, symBinAddr: 0x100004F60, symSize: 0x24 }
  - { offsetInCU: 0x4C70, offset: 0x11D43, size: 0x8, addend: 0x0, symName: __ZNSt3__19make_pairB7v160006IP9InventoryS2_EENS_4pairINS_18__unwrap_ref_decayIT_E4typeENS4_IT0_E4typeEEEOS5_OS8_, symObjAddr: 0x2270, symBinAddr: 0x100004F84, symSize: 0x38 }
  - { offsetInCU: 0x4CBF, offset: 0x11D92, size: 0x8, addend: 0x0, symName: __ZNSt3__114__rewrap_rangeB7v160006IP9InventoryS2_EET_S3_T0_, symObjAddr: 0x22A8, symBinAddr: 0x100004FBC, symSize: 0x2C }
  - { offsetInCU: 0x4D0B, offset: 0x11DDE, size: 0x8, addend: 0x0, symName: __ZNSt3__113__rewrap_iterB7v160006IP9InventoryS2_NS_18__unwrap_iter_implIS2_Lb1EEEEET_S5_T0_, symObjAddr: 0x22D4, symBinAddr: 0x100004FE8, symSize: 0x3C }
  - { offsetInCU: 0x4DB3, offset: 0x11E86, size: 0x8, addend: 0x0, symName: __ZNSt3__13maxB7v160006ImEERKT_S3_S3_, symObjAddr: 0x2550, symBinAddr: 0x100005264, symSize: 0x2C }
  - { offsetInCU: 0x4DF6, offset: 0x11EC9, size: 0x8, addend: 0x0, symName: __ZNSt3__13maxB7v160006ImNS_6__lessImmEEEERKT_S5_S5_T0_, symObjAddr: 0x257C, symBinAddr: 0x100005290, symSize: 0x54 }
  - { offsetInCU: 0x50B9, offset: 0x1218C, size: 0x8, addend: 0x0, symName: __ZSt28__throw_bad_array_new_lengthB7v160006v, symObjAddr: 0xEF4, symBinAddr: 0x100003C08, symSize: 0x34 }
  - { offsetInCU: 0x72F9, offset: 0x143CC, size: 0x8, addend: 0x0, symName: __ZN9ProcedureC2Ev, symObjAddr: 0x0, symBinAddr: 0x100002F14, symSize: 0x48 }
  - { offsetInCU: 0x7328, offset: 0x143FB, size: 0x8, addend: 0x0, symName: __ZNSt3__16vectorI9InventoryNS_9allocatorIS1_EEEC1B7v160006Ev, symObjAddr: 0x7C, symBinAddr: 0x100002F5C, symSize: 0x2C }
  - { offsetInCU: 0x7350, offset: 0x14423, size: 0x8, addend: 0x0, symName: __ZN9ProcedureC1Ev, symObjAddr: 0xA8, symBinAddr: 0x100002F88, symSize: 0x2C }
  - { offsetInCU: 0x737A, offset: 0x1444D, size: 0x8, addend: 0x0, symName: __ZN9ProcedureC2ENSt3__112basic_stringIcNS0_11char_traitsIcEENS0_9allocatorIcEEEEfRNS0_6vectorI9InventoryNS4_IS8_EEEE, symObjAddr: 0xD4, symBinAddr: 0x100002FB4, symSize: 0x7C }
  - { offsetInCU: 0x73CF, offset: 0x144A2, size: 0x8, addend: 0x0, symName: __ZNSt3__16vectorI9InventoryNS_9allocatorIS1_EEEC1ERKS4_, symObjAddr: 0x150, symBinAddr: 0x100003030, symSize: 0x34 }
  - { offsetInCU: 0x7409, offset: 0x144DC, size: 0x8, addend: 0x0, symName: __ZN9ProcedureC1ENSt3__112basic_stringIcNS0_11char_traitsIcEENS0_9allocatorIcEEEEfRNS0_6vectorI9InventoryNS4_IS8_EEEE, symObjAddr: 0x184, symBinAddr: 0x100003064, symSize: 0x44 }
  - { offsetInCU: 0x745E, offset: 0x14531, size: 0x8, addend: 0x0, symName: __ZN9Procedure16setProcedureNameENSt3__112basic_stringIcNS0_11char_traitsIcEENS0_9allocatorIcEEEE, symObjAddr: 0x1C8, symBinAddr: 0x1000030A8, symSize: 0x2C }
  - { offsetInCU: 0x7493, offset: 0x14566, size: 0x8, addend: 0x0, symName: __ZN9Procedure7setCostEf, symObjAddr: 0x1F4, symBinAddr: 0x1000030D4, symSize: 0x20 }
  - { offsetInCU: 0x74C7, offset: 0x1459A, size: 0x8, addend: 0x0, symName: __ZN9Procedure12setItemsUsedERNSt3__16vectorI9InventoryNS0_9allocatorIS2_EEEE, symObjAddr: 0x214, symBinAddr: 0x1000030F4, symSize: 0x30 }
  - { offsetInCU: 0x74FB, offset: 0x145CE, size: 0x8, addend: 0x0, symName: __ZNSt3__16vectorI9InventoryNS_9allocatorIS1_EEEaSB7v160006ERKS4_, symObjAddr: 0x244, symBinAddr: 0x100003124, symSize: 0x68 }
  - { offsetInCU: 0x7531, offset: 0x14604, size: 0x8, addend: 0x0, symName: __ZNK9Procedure16getProcedureNameEv, symObjAddr: 0x2AC, symBinAddr: 0x10000318C, symSize: 0x38 }
  - { offsetInCU: 0x7557, offset: 0x1462A, size: 0x8, addend: 0x0, symName: __ZNK9Procedure7getCostEv, symObjAddr: 0x2E4, symBinAddr: 0x1000031C4, symSize: 0x18 }
  - { offsetInCU: 0x757D, offset: 0x14650, size: 0x8, addend: 0x0, symName: __ZNK9Procedure12getItemsUsedEv, symObjAddr: 0x2FC, symBinAddr: 0x1000031DC, symSize: 0x18 }
  - { offsetInCU: 0x75A8, offset: 0x1467B, size: 0x8, addend: 0x0, symName: __ZNSt3__16vectorI9InventoryNS_9allocatorIS1_EEEC2B7v160006Ev, symObjAddr: 0x4E0, symBinAddr: 0x1000031F4, symSize: 0x58 }
  - { offsetInCU: 0x75D5, offset: 0x146A8, size: 0x8, addend: 0x0, symName: __ZNSt3__117__compressed_pairIP9InventoryNS_9allocatorIS1_EEEC1B7v160006IDnNS_18__default_init_tagEEEOT_OT0_, symObjAddr: 0x538, symBinAddr: 0x10000324C, symSize: 0x3C }
  - { offsetInCU: 0x762B, offset: 0x146FE, size: 0x8, addend: 0x0, symName: __ZNSt3__117__compressed_pairIP9InventoryNS_9allocatorIS1_EEEC2B7v160006IDnNS_18__default_init_tagEEEOT_OT0_, symObjAddr: 0x584, symBinAddr: 0x100003298, symSize: 0x40 }
  - { offsetInCU: 0x7681, offset: 0x14754, size: 0x8, addend: 0x0, symName: __ZNSt3__122__compressed_pair_elemIP9InventoryLi0ELb0EEC2B7v160006IDnvEEOT_, symObjAddr: 0x5C4, symBinAddr: 0x1000032D8, symSize: 0x1C }
  - { offsetInCU: 0x76C1, offset: 0x14794, size: 0x8, addend: 0x0, symName: __ZNSt3__122__compressed_pair_elemINS_9allocatorI9InventoryEELi1ELb1EEC2B7v160006ENS_18__default_init_tagE, symObjAddr: 0x5E0, symBinAddr: 0x1000032F4, symSize: 0x2C }
  - { offsetInCU: 0x76F3, offset: 0x147C6, size: 0x8, addend: 0x0, symName: __ZNSt3__19allocatorI9InventoryEC2B7v160006Ev, symObjAddr: 0x60C, symBinAddr: 0x100003320, symSize: 0x2C }
  - { offsetInCU: 0x771B, offset: 0x147EE, size: 0x8, addend: 0x0, symName: __ZNSt3__116__non_trivial_ifILb1ENS_9allocatorI9InventoryEEEC2B7v160006Ev, symObjAddr: 0x638, symBinAddr: 0x10000334C, symSize: 0x14 }
  - { offsetInCU: 0x7743, offset: 0x14816, size: 0x8, addend: 0x0, symName: __ZNSt3__16vectorI9InventoryNS_9allocatorIS1_EEEC2ERKS4_, symObjAddr: 0x64C, symBinAddr: 0x100003360, symSize: 0x110 }
  - { offsetInCU: 0x77AC, offset: 0x1487F, size: 0x8, addend: 0x0, symName: __ZNSt3__116allocator_traitsINS_9allocatorI9InventoryEEE37select_on_container_copy_constructionB7v160006IS3_vvEES3_RKS3_, symObjAddr: 0x75C, symBinAddr: 0x100003470, symSize: 0x10 }
  - { offsetInCU: 0x77DC, offset: 0x148AF, size: 0x8, addend: 0x0, symName: __ZNKSt3__16vectorI9InventoryNS_9allocatorIS1_EEE7__allocB7v160006Ev, symObjAddr: 0x76C, symBinAddr: 0x100003480, symSize: 0x28 }
  - { offsetInCU: 0x7804, offset: 0x148D7, size: 0x8, addend: 0x0, symName: __ZNSt3__117__compressed_pairIP9InventoryNS_9allocatorIS1_EEEC1B7v160006IDnS4_EEOT_OT0_, symObjAddr: 0x794, symBinAddr: 0x1000034A8, symSize: 0x3C }
  - { offsetInCU: 0x785A, offset: 0x1492D, size: 0x8, addend: 0x0, symName: __ZNSt3__16vectorI9InventoryNS_9allocatorIS1_EEE16__destroy_vectorC1ERS4_, symObjAddr: 0x810, symBinAddr: 0x100003524, symSize: 0x34 }
  - { offsetInCU: 0x7892, offset: 0x14965, size: 0x8, addend: 0x0, symName: __ZNKSt3__16vectorI9InventoryNS_9allocatorIS1_EEE4sizeB7v160006Ev, symObjAddr: 0x844, symBinAddr: 0x100003558, symSize: 0x28 }
  - { offsetInCU: 0x78B6, offset: 0x14989, size: 0x8, addend: 0x0, symName: __ZNSt3__16vectorI9InventoryNS_9allocatorIS1_EEE11__vallocateB7v160006Em, symObjAddr: 0x86C, symBinAddr: 0x100003580, symSize: 0xAC }
  - { offsetInCU: 0x78F7, offset: 0x149CA, size: 0x8, addend: 0x0, symName: __ZNSt3__16vectorI9InventoryNS_9allocatorIS1_EEE18__construct_at_endIPS1_Li0EEEvT_S7_m, symObjAddr: 0x918, symBinAddr: 0x10000362C, symSize: 0x8C }
  - { offsetInCU: 0x796A, offset: 0x14A3D, size: 0x8, addend: 0x0, symName: __ZNSt3__128__exception_guard_exceptionsINS_6vectorI9InventoryNS_9allocatorIS2_EEE16__destroy_vectorEE10__completeB7v160006Ev, symObjAddr: 0x9A4, symBinAddr: 0x1000036B8, symSize: 0x1C }
  - { offsetInCU: 0x798D, offset: 0x14A60, size: 0x8, addend: 0x0, symName: __ZNSt3__128__exception_guard_exceptionsINS_6vectorI9InventoryNS_9allocatorIS2_EEE16__destroy_vectorEED1B7v160006Ev, symObjAddr: 0x9C0, symBinAddr: 0x1000036D4, symSize: 0x2C }
  - { offsetInCU: 0x79B6, offset: 0x14A89, size: 0x8, addend: 0x0, symName: __ZNKSt3__117__compressed_pairIP9InventoryNS_9allocatorIS1_EEE6secondB7v160006Ev, symObjAddr: 0x9EC, symBinAddr: 0x100003700, symSize: 0x24 }
  - { offsetInCU: 0x79DA, offset: 0x14AAD, size: 0x8, addend: 0x0, symName: __ZNKSt3__122__compressed_pair_elemINS_9allocatorI9InventoryEELi1ELb1EE5__getB7v160006Ev, symObjAddr: 0xA10, symBinAddr: 0x100003724, symSize: 0x14 }
  - { offsetInCU: 0x79FD, offset: 0x14AD0, size: 0x8, addend: 0x0, symName: __ZNSt3__117__compressed_pairIP9InventoryNS_9allocatorIS1_EEEC2B7v160006IDnS4_EEOT_OT0_, symObjAddr: 0xA24, symBinAddr: 0x100003738, symSize: 0x44 }
  - { offsetInCU: 0x7A53, offset: 0x14B26, size: 0x8, addend: 0x0, symName: __ZNSt3__122__compressed_pair_elemINS_9allocatorI9InventoryEELi1ELb1EEC2B7v160006IS3_vEEOT_, symObjAddr: 0xA68, symBinAddr: 0x10000377C, symSize: 0x18 }
  - { offsetInCU: 0x7A93, offset: 0x14B66, size: 0x8, addend: 0x0, symName: __ZNSt3__128__exception_guard_exceptionsINS_6vectorI9InventoryNS_9allocatorIS2_EEE16__destroy_vectorEEC1B7v160006ES6_, symObjAddr: 0xA80, symBinAddr: 0x100003794, symSize: 0x34 }
  - { offsetInCU: 0x7AC9, offset: 0x14B9C, size: 0x8, addend: 0x0, symName: __ZNSt3__128__exception_guard_exceptionsINS_6vectorI9InventoryNS_9allocatorIS2_EEE16__destroy_vectorEEC2B7v160006ES6_, symObjAddr: 0xAB4, symBinAddr: 0x1000037C8, symSize: 0x24 }
  - { offsetInCU: 0x7AFF, offset: 0x14BD2, size: 0x8, addend: 0x0, symName: __ZNSt3__16vectorI9InventoryNS_9allocatorIS1_EEE16__destroy_vectorC2ERS4_, symObjAddr: 0xAD8, symBinAddr: 0x1000037EC, symSize: 0x20 }
  - { offsetInCU: 0x7B36, offset: 0x14C09, size: 0x8, addend: 0x0, symName: __ZNKSt3__16vectorI9InventoryNS_9allocatorIS1_EEE8max_sizeEv, symObjAddr: 0xAF8, symBinAddr: 0x10000380C, symSize: 0x60 }
  - { offsetInCU: 0x7B5E, offset: 0x14C31, size: 0x8, addend: 0x0, symName: __ZNKSt3__16vectorI9InventoryNS_9allocatorIS1_EEE20__throw_length_errorB7v160006Ev, symObjAddr: 0xB58, symBinAddr: 0x10000386C, symSize: 0x1C }
  - { offsetInCU: 0x7B82, offset: 0x14C55, size: 0x8, addend: 0x0, symName: __ZNSt3__16vectorI9InventoryNS_9allocatorIS1_EEE7__allocB7v160006Ev, symObjAddr: 0xBB4, symBinAddr: 0x1000038C8, symSize: 0x28 }
  - { offsetInCU: 0x7BA6, offset: 0x14C79, size: 0x8, addend: 0x0, symName: __ZNSt3__16vectorI9InventoryNS_9allocatorIS1_EEE9__end_capB7v160006Ev, symObjAddr: 0xBDC, symBinAddr: 0x1000038F0, symSize: 0x28 }
  - { offsetInCU: 0x7BCA, offset: 0x14C9D, size: 0x8, addend: 0x0, symName: __ZNKSt3__16vectorI9InventoryNS_9allocatorIS1_EEE14__annotate_newB7v160006Em, symObjAddr: 0xC04, symBinAddr: 0x100003918, symSize: 0xAC }
  - { offsetInCU: 0x7BFC, offset: 0x14CCF, size: 0x8, addend: 0x0, symName: __ZNSt3__116allocator_traitsINS_9allocatorI9InventoryEEE8max_sizeB7v160006IS3_vEEmRKS3_, symObjAddr: 0xCDC, symBinAddr: 0x1000039F0, symSize: 0x24 }
  - { offsetInCU: 0x7C2A, offset: 0x14CFD, size: 0x8, addend: 0x0, symName: __ZNSt3__114numeric_limitsIlE3maxB7v160006Ev, symObjAddr: 0xD00, symBinAddr: 0x100003A14, symSize: 0x14 }
  - { offsetInCU: 0x7C52, offset: 0x14D25, size: 0x8, addend: 0x0, symName: __ZNKSt3__16__lessImmEclB7v160006ERKmS3_, symObjAddr: 0xD68, symBinAddr: 0x100003A7C, symSize: 0x34 }
  - { offsetInCU: 0x7C92, offset: 0x14D65, size: 0x8, addend: 0x0, symName: __ZNKSt3__19allocatorI9InventoryE8max_sizeB7v160006Ev, symObjAddr: 0xD9C, symBinAddr: 0x100003AB0, symSize: 0x14 }
  - { offsetInCU: 0x7CB6, offset: 0x14D89, size: 0x8, addend: 0x0, symName: __ZNSt3__123__libcpp_numeric_limitsIlLb1EE3maxB7v160006Ev, symObjAddr: 0xDB0, symBinAddr: 0x100003AC4, symSize: 0x8 }
  - { offsetInCU: 0x7CC9, offset: 0x14D9C, size: 0x8, addend: 0x0, symName: __ZNSt12length_errorC1B7v160006EPKc, symObjAddr: 0xE1C, symBinAddr: 0x100003B30, symSize: 0x34 }
  - { offsetInCU: 0x7CFF, offset: 0x14DD2, size: 0x8, addend: 0x0, symName: __ZNSt12length_errorC2B7v160006EPKc, symObjAddr: 0xE50, symBinAddr: 0x100003B64, symSize: 0x4C }
  - { offsetInCU: 0x7D36, offset: 0x14E09, size: 0x8, addend: 0x0, symName: __ZNSt3__19allocatorI9InventoryE8allocateB7v160006Em, symObjAddr: 0xE9C, symBinAddr: 0x100003BB0, symSize: 0x58 }
  - { offsetInCU: 0x7D68, offset: 0x14E3B, size: 0x8, addend: 0x0, symName: __ZNSt3__117__compressed_pairIP9InventoryNS_9allocatorIS1_EEE6secondB7v160006Ev, symObjAddr: 0xF74, symBinAddr: 0x100003C88, symSize: 0x24 }
  - { offsetInCU: 0x7D8C, offset: 0x14E5F, size: 0x8, addend: 0x0, symName: __ZNSt3__122__compressed_pair_elemINS_9allocatorI9InventoryEELi1ELb1EE5__getB7v160006Ev, symObjAddr: 0xF98, symBinAddr: 0x100003CAC, symSize: 0x14 }
  - { offsetInCU: 0x7DB0, offset: 0x14E83, size: 0x8, addend: 0x0, symName: __ZNSt3__117__compressed_pairIP9InventoryNS_9allocatorIS1_EEE5firstB7v160006Ev, symObjAddr: 0xFAC, symBinAddr: 0x100003CC0, symSize: 0x24 }
  - { offsetInCU: 0x7DD4, offset: 0x14EA7, size: 0x8, addend: 0x0, symName: __ZNSt3__122__compressed_pair_elemIP9InventoryLi0ELb0EE5__getB7v160006Ev, symObjAddr: 0xFD0, symBinAddr: 0x100003CE4, symSize: 0x14 }
  - { offsetInCU: 0x7DF8, offset: 0x14ECB, size: 0x8, addend: 0x0, symName: __ZNKSt3__16vectorI9InventoryNS_9allocatorIS1_EEE31__annotate_contiguous_containerB7v160006EPKvS6_S6_S6_, symObjAddr: 0xFE4, symBinAddr: 0x100003CF8, symSize: 0x20 }
  - { offsetInCU: 0x7E4C, offset: 0x14F1F, size: 0x8, addend: 0x0, symName: __ZNKSt3__16vectorI9InventoryNS_9allocatorIS1_EEE4dataB7v160006Ev, symObjAddr: 0x1004, symBinAddr: 0x100003D18, symSize: 0x28 }
  - { offsetInCU: 0x7E70, offset: 0x14F43, size: 0x8, addend: 0x0, symName: __ZNKSt3__16vectorI9InventoryNS_9allocatorIS1_EEE8capacityB7v160006Ev, symObjAddr: 0x102C, symBinAddr: 0x100003D40, symSize: 0x40 }
  - { offsetInCU: 0x7E94, offset: 0x14F67, size: 0x8, addend: 0x0, symName: __ZNKSt3__16vectorI9InventoryNS_9allocatorIS1_EEE9__end_capB7v160006Ev, symObjAddr: 0x1080, symBinAddr: 0x100003D94, symSize: 0x28 }
  - { offsetInCU: 0x7EB8, offset: 0x14F8B, size: 0x8, addend: 0x0, symName: __ZNKSt3__117__compressed_pairIP9InventoryNS_9allocatorIS1_EEE5firstB7v160006Ev, symObjAddr: 0x10A8, symBinAddr: 0x100003DBC, symSize: 0x24 }
  - { offsetInCU: 0x7EDC, offset: 0x14FAF, size: 0x8, addend: 0x0, symName: __ZNKSt3__122__compressed_pair_elemIP9InventoryLi0ELb0EE5__getB7v160006Ev, symObjAddr: 0x10CC, symBinAddr: 0x100003DE0, symSize: 0x14 }
  - { offsetInCU: 0x7F18, offset: 0x14FEB, size: 0x8, addend: 0x0, symName: __ZNSt3__16vectorI9InventoryNS_9allocatorIS1_EEE21_ConstructTransactionC1B7v160006ERS4_m, symObjAddr: 0x10E0, symBinAddr: 0x100003DF4, symSize: 0x3C }
  - { offsetInCU: 0x7F5E, offset: 0x15031, size: 0x8, addend: 0x0, symName: __ZNSt3__16vectorI9InventoryNS_9allocatorIS1_EEE21_ConstructTransactionD1B7v160006Ev, symObjAddr: 0x1210, symBinAddr: 0x100003F24, symSize: 0x2C }
  - { offsetInCU: 0x7F86, offset: 0x15059, size: 0x8, addend: 0x0, symName: __ZNSt3__16vectorI9InventoryNS_9allocatorIS1_EEE21_ConstructTransactionC2B7v160006ERS4_m, symObjAddr: 0x123C, symBinAddr: 0x100003F50, symSize: 0x44 }
  - { offsetInCU: 0x7FCC, offset: 0x1509F, size: 0x8, addend: 0x0, symName: __ZNSt3__129_AllocatorDestroyRangeReverseINS_9allocatorI9InventoryEEPS2_EC1B7v160006ERS3_RS4_S7_, symObjAddr: 0x12CC, symBinAddr: 0x100003FE0, symSize: 0x44 }
  - { offsetInCU: 0x8021, offset: 0x150F4, size: 0x8, addend: 0x0, symName: __ZNSt3__116allocator_traitsINS_9allocatorI9InventoryEEE9constructB7v160006IS2_JRS2_EvEEvRS3_PT_DpOT0_, symObjAddr: 0x1310, symBinAddr: 0x100004024, symSize: 0x34 }
  - { offsetInCU: 0x8078, offset: 0x1514B, size: 0x8, addend: 0x0, symName: __ZNSt3__128__exception_guard_exceptionsINS_29_AllocatorDestroyRangeReverseINS_9allocatorI9InventoryEEPS3_EEE10__completeB7v160006Ev, symObjAddr: 0x1344, symBinAddr: 0x100004058, symSize: 0x1C }
  - { offsetInCU: 0x809B, offset: 0x1516E, size: 0x8, addend: 0x0, symName: __ZNSt3__128__exception_guard_exceptionsINS_29_AllocatorDestroyRangeReverseINS_9allocatorI9InventoryEEPS3_EEED1B7v160006Ev, symObjAddr: 0x1360, symBinAddr: 0x100004074, symSize: 0x2C }
  - { offsetInCU: 0x80C3, offset: 0x15196, size: 0x8, addend: 0x0, symName: __ZNSt3__128__exception_guard_exceptionsINS_29_AllocatorDestroyRangeReverseINS_9allocatorI9InventoryEEPS3_EEEC1B7v160006ES6_, symObjAddr: 0x138C, symBinAddr: 0x1000040A0, symSize: 0x34 }
  - { offsetInCU: 0x80FA, offset: 0x151CD, size: 0x8, addend: 0x0, symName: __ZNSt3__128__exception_guard_exceptionsINS_29_AllocatorDestroyRangeReverseINS_9allocatorI9InventoryEEPS3_EEEC2B7v160006ES6_, symObjAddr: 0x13C0, symBinAddr: 0x1000040D4, symSize: 0x30 }
  - { offsetInCU: 0x8131, offset: 0x15204, size: 0x8, addend: 0x0, symName: __ZNSt3__129_AllocatorDestroyRangeReverseINS_9allocatorI9InventoryEEPS2_EC2B7v160006ERS3_RS4_S7_, symObjAddr: 0x13F0, symBinAddr: 0x100004104, symSize: 0x38 }
  - { offsetInCU: 0x8187, offset: 0x1525A, size: 0x8, addend: 0x0, symName: __ZNSt3__19allocatorI9InventoryE9constructB7v160006IS1_JRS1_EEEvPT_DpOT0_, symObjAddr: 0x1428, symBinAddr: 0x10000413C, symSize: 0x30 }
  - { offsetInCU: 0x81DA, offset: 0x152AD, size: 0x8, addend: 0x0, symName: __ZN9InventoryC1ERKS_, symObjAddr: 0x1458, symBinAddr: 0x10000416C, symSize: 0x34 }
  - { offsetInCU: 0x820C, offset: 0x152DF, size: 0x8, addend: 0x0, symName: __ZN9InventoryC2ERKS_, symObjAddr: 0x148C, symBinAddr: 0x1000041A0, symSize: 0x40 }
  - { offsetInCU: 0x823E, offset: 0x15311, size: 0x8, addend: 0x0, symName: __ZNSt3__128__exception_guard_exceptionsINS_29_AllocatorDestroyRangeReverseINS_9allocatorI9InventoryEEPS3_EEED2B7v160006Ev, symObjAddr: 0x14CC, symBinAddr: 0x1000041E0, symSize: 0x50 }
  - { offsetInCU: 0x8267, offset: 0x1533A, size: 0x8, addend: 0x0, symName: __ZNKSt3__129_AllocatorDestroyRangeReverseINS_9allocatorI9InventoryEEPS2_EclB7v160006Ev, symObjAddr: 0x151C, symBinAddr: 0x100004230, symSize: 0x68 }
  - { offsetInCU: 0x828A, offset: 0x1535D, size: 0x8, addend: 0x0, symName: __ZNSt3__116reverse_iteratorIP9InventoryEC1B7v160006ES2_, symObjAddr: 0x15F4, symBinAddr: 0x100004308, symSize: 0x34 }
  - { offsetInCU: 0x82C0, offset: 0x15393, size: 0x8, addend: 0x0, symName: __ZNSt3__116allocator_traitsINS_9allocatorI9InventoryEEE7destroyB7v160006IS2_vEEvRS3_PT_, symObjAddr: 0x1670, symBinAddr: 0x100004384, symSize: 0x2C }
  - { offsetInCU: 0x82FD, offset: 0x153D0, size: 0x8, addend: 0x0, symName: __ZNSt3__116reverse_iteratorIP9InventoryEppB7v160006Ev, symObjAddr: 0x16C0, symBinAddr: 0x1000043D4, symSize: 0x20 }
  - { offsetInCU: 0x8321, offset: 0x153F4, size: 0x8, addend: 0x0, symName: __ZNKSt3__116reverse_iteratorIP9InventoryE4baseB7v160006Ev, symObjAddr: 0x16E0, symBinAddr: 0x1000043F4, symSize: 0x18 }
  - { offsetInCU: 0x8345, offset: 0x15418, size: 0x8, addend: 0x0, symName: __ZNSt3__19allocatorI9InventoryE7destroyB7v160006EPS1_, symObjAddr: 0x16F8, symBinAddr: 0x10000440C, symSize: 0x28 }
  - { offsetInCU: 0x8376, offset: 0x15449, size: 0x8, addend: 0x0, symName: __ZN9InventoryD1Ev, symObjAddr: 0x1720, symBinAddr: 0x100004434, symSize: 0x2C }
  - { offsetInCU: 0x83A0, offset: 0x15473, size: 0x8, addend: 0x0, symName: __ZN9InventoryD2Ev, symObjAddr: 0x174C, symBinAddr: 0x100004460, symSize: 0x2C }
  - { offsetInCU: 0x83CF, offset: 0x154A2, size: 0x8, addend: 0x0, symName: __ZNSt3__119__to_address_helperINS_16reverse_iteratorIP9InventoryEEvE6__callB7v160006ERKS4_, symObjAddr: 0x1778, symBinAddr: 0x10000448C, symSize: 0x38 }
  - { offsetInCU: 0x83F2, offset: 0x154C5, size: 0x8, addend: 0x0, symName: __ZNKSt3__116reverse_iteratorIP9InventoryEptB7v160006Ev, symObjAddr: 0x17B0, symBinAddr: 0x1000044C4, symSize: 0x24 }
  - { offsetInCU: 0x8416, offset: 0x154E9, size: 0x8, addend: 0x0, symName: __ZNKSt3__116reverse_iteratorIP9InventoryEdeB7v160006Ev, symObjAddr: 0x17D4, symBinAddr: 0x1000044E8, symSize: 0x28 }
  - { offsetInCU: 0x8447, offset: 0x1551A, size: 0x8, addend: 0x0, symName: __ZNSt3__116reverse_iteratorIP9InventoryEC2B7v160006ES2_, symObjAddr: 0x17FC, symBinAddr: 0x100004510, symSize: 0x28 }
  - { offsetInCU: 0x847D, offset: 0x15550, size: 0x8, addend: 0x0, symName: __ZNSt3__16vectorI9InventoryNS_9allocatorIS1_EEE21_ConstructTransactionD2B7v160006Ev, symObjAddr: 0x1824, symBinAddr: 0x100004538, symSize: 0x20 }
  - { offsetInCU: 0x84A5, offset: 0x15578, size: 0x8, addend: 0x0, symName: __ZNSt3__128__exception_guard_exceptionsINS_6vectorI9InventoryNS_9allocatorIS2_EEE16__destroy_vectorEED2B7v160006Ev, symObjAddr: 0x1844, symBinAddr: 0x100004558, symSize: 0x50 }
  - { offsetInCU: 0x84CE, offset: 0x155A1, size: 0x8, addend: 0x0, symName: __ZNSt3__16vectorI9InventoryNS_9allocatorIS1_EEE16__destroy_vectorclB7v160006Ev, symObjAddr: 0x1894, symBinAddr: 0x1000045A8, symSize: 0x9C }
  - { offsetInCU: 0x84F2, offset: 0x155C5, size: 0x8, addend: 0x0, symName: __ZNKSt3__16vectorI9InventoryNS_9allocatorIS1_EEE17__annotate_deleteB7v160006Ev, symObjAddr: 0x1930, symBinAddr: 0x100004644, symSize: 0xB8 }
  - { offsetInCU: 0x8516, offset: 0x155E9, size: 0x8, addend: 0x0, symName: __ZNSt3__16vectorI9InventoryNS_9allocatorIS1_EEE7__clearB7v160006Ev, symObjAddr: 0x19F8, symBinAddr: 0x10000470C, symSize: 0x28 }
  - { offsetInCU: 0x8539, offset: 0x1560C, size: 0x8, addend: 0x0, symName: __ZNSt3__116allocator_traitsINS_9allocatorI9InventoryEEE10deallocateB7v160006ERS3_PS2_m, symObjAddr: 0x1A20, symBinAddr: 0x100004734, symSize: 0x34 }
  - { offsetInCU: 0x857B, offset: 0x1564E, size: 0x8, addend: 0x0, symName: __ZNSt3__16vectorI9InventoryNS_9allocatorIS1_EEE22__base_destruct_at_endB7v160006EPS1_, symObjAddr: 0x1A54, symBinAddr: 0x100004768, symSize: 0x8C }
  - { offsetInCU: 0x85BD, offset: 0x15690, size: 0x8, addend: 0x0, symName: __ZNSt3__19allocatorI9InventoryE10deallocateB7v160006EPS1_m, symObjAddr: 0x1AE0, symBinAddr: 0x1000047F4, symSize: 0x40 }
  - { offsetInCU: 0x85FD, offset: 0x156D0, size: 0x8, addend: 0x0, symName: __ZNSt3__16vectorI9InventoryNS_9allocatorIS1_EEE19__copy_assign_allocB7v160006ERKS4_, symObjAddr: 0x1B9C, symBinAddr: 0x1000048B0, symSize: 0x2C }
  - { offsetInCU: 0x862F, offset: 0x15702, size: 0x8, addend: 0x0, symName: __ZNSt3__16vectorI9InventoryNS_9allocatorIS1_EEE6assignIPS1_Li0EEEvT_S7_, symObjAddr: 0x1BC8, symBinAddr: 0x1000048DC, symSize: 0x17C }
  - { offsetInCU: 0x86CF, offset: 0x157A2, size: 0x8, addend: 0x0, symName: __ZNSt3__16vectorI9InventoryNS_9allocatorIS1_EEE19__copy_assign_allocB7v160006ERKS4_NS_17integral_constantIbLb0EEE, symObjAddr: 0x1D44, symBinAddr: 0x100004A58, symSize: 0x14 }
  - { offsetInCU: 0x870B, offset: 0x157DE, size: 0x8, addend: 0x0, symName: __ZNSt3__16vectorI9InventoryNS_9allocatorIS1_EEE17__destruct_at_endB7v160006EPS1_, symObjAddr: 0x1E14, symBinAddr: 0x100004B28, symSize: 0x60 }
  - { offsetInCU: 0x874C, offset: 0x1581F, size: 0x8, addend: 0x0, symName: __ZNSt3__16vectorI9InventoryNS_9allocatorIS1_EEE13__vdeallocateEv, symObjAddr: 0x1E74, symBinAddr: 0x100004B88, symSize: 0x8C }
  - { offsetInCU: 0x8773, offset: 0x15846, size: 0x8, addend: 0x0, symName: __ZNKSt3__16vectorI9InventoryNS_9allocatorIS1_EEE11__recommendB7v160006Em, symObjAddr: 0x1F00, symBinAddr: 0x100004C14, symSize: 0xB4 }
  - { offsetInCU: 0x87EB, offset: 0x158BE, size: 0x8, addend: 0x0, symName: __ZNKSt3__111__copy_loopINS_17_ClassicAlgPolicyEEclB7v160006IP9InventoryS5_S5_EENS_4pairIT_T1_EES7_T0_S8_, symObjAddr: 0x21C4, symBinAddr: 0x100004ED8, symSize: 0x88 }
  - { offsetInCU: 0x8853, offset: 0x15926, size: 0x8, addend: 0x0, symName: __ZN9InventoryaSERKS_, symObjAddr: 0x2310, symBinAddr: 0x100005024, symSize: 0x40 }
  - { offsetInCU: 0x8881, offset: 0x15954, size: 0x8, addend: 0x0, symName: __ZNSt3__118__unwrap_iter_implIP9InventoryLb1EE8__unwrapB7v160006ES2_, symObjAddr: 0x2350, symBinAddr: 0x100005064, symSize: 0x24 }
  - { offsetInCU: 0x88A8, offset: 0x1597B, size: 0x8, addend: 0x0, symName: __ZNSt3__14pairIP9InventoryS2_EC1B7v160006IS2_S2_LPv0EEEOT_OT0_, symObjAddr: 0x2374, symBinAddr: 0x100005088, symSize: 0x3C }
  - { offsetInCU: 0x8904, offset: 0x159D7, size: 0x8, addend: 0x0, symName: __ZNSt3__14pairIP9InventoryS2_EC2B7v160006IS2_S2_LPv0EEEOT_OT0_, symObjAddr: 0x23B0, symBinAddr: 0x1000050C4, symSize: 0x34 }
  - { offsetInCU: 0x8960, offset: 0x15A33, size: 0x8, addend: 0x0, symName: __ZNSt3__118__unwrap_iter_implIP9InventoryLb1EE8__rewrapB7v160006ES2_S2_, symObjAddr: 0x23E4, symBinAddr: 0x1000050F8, symSize: 0x50 }
  - { offsetInCU: 0x8991, offset: 0x15A64, size: 0x8, addend: 0x0, symName: __ZNSt3__16vectorI9InventoryNS_9allocatorIS1_EEE27__invalidate_iterators_pastB7v160006EPS1_, symObjAddr: 0x2434, symBinAddr: 0x100005148, symSize: 0x14 }
  - { offsetInCU: 0x89C7, offset: 0x15A9A, size: 0x8, addend: 0x0, symName: __ZNKSt3__16vectorI9InventoryNS_9allocatorIS1_EEE17__annotate_shrinkB7v160006Em, symObjAddr: 0x2448, symBinAddr: 0x10000515C, symSize: 0xB4 }
  - { offsetInCU: 0x89FA, offset: 0x15ACD, size: 0x8, addend: 0x0, symName: __ZNSt3__16vectorI9InventoryNS_9allocatorIS1_EEE5clearB7v160006Ev, symObjAddr: 0x24FC, symBinAddr: 0x100005210, symSize: 0x54 }
  - { offsetInCU: 0x26, offset: 0x15B98, size: 0x8, addend: 0x0, symName: __ZN4RoomC2Ev, symObjAddr: 0x0, symBinAddr: 0x1000052E4, symSize: 0x20 }
  - { offsetInCU: 0x4D, offset: 0x15BBF, size: 0x8, addend: 0x0, symName: __ZN4RoomC2Ev, symObjAddr: 0x0, symBinAddr: 0x1000052E4, symSize: 0x20 }
  - { offsetInCU: 0x78, offset: 0x15BEA, size: 0x8, addend: 0x0, symName: __ZN4RoomC1Ev, symObjAddr: 0x20, symBinAddr: 0x100005304, symSize: 0x2C }
  - { offsetInCU: 0xA2, offset: 0x15C14, size: 0x8, addend: 0x0, symName: __ZN4RoomC2Ejsb, symObjAddr: 0x4C, symBinAddr: 0x100005330, symSize: 0x44 }
  - { offsetInCU: 0xF7, offset: 0x15C69, size: 0x8, addend: 0x0, symName: __ZN4RoomC1Ejsb, symObjAddr: 0x90, symBinAddr: 0x100005374, symSize: 0x50 }
  - { offsetInCU: 0x14B, offset: 0x15CBD, size: 0x8, addend: 0x0, symName: __ZN4Room13setRoomNumberEj, symObjAddr: 0xE0, symBinAddr: 0x1000053C4, symSize: 0x20 }
  - { offsetInCU: 0x17F, offset: 0x15CF1, size: 0x8, addend: 0x0, symName: __ZN4Room18setRoomFloorNumberEs, symObjAddr: 0x100, symBinAddr: 0x1000053E4, symSize: 0x20 }
  - { offsetInCU: 0x1B3, offset: 0x15D25, size: 0x8, addend: 0x0, symName: __ZN4Room19setRoomAvailabilityEb, symObjAddr: 0x120, symBinAddr: 0x100005404, symSize: 0x2C }
  - { offsetInCU: 0x1E7, offset: 0x15D59, size: 0x8, addend: 0x0, symName: __ZNK4Room13getRoomNumberEv, symObjAddr: 0x14C, symBinAddr: 0x100005430, symSize: 0x18 }
  - { offsetInCU: 0x20D, offset: 0x15D7F, size: 0x8, addend: 0x0, symName: __ZNK4Room18getRoomFloorNumberEv, symObjAddr: 0x164, symBinAddr: 0x100005448, symSize: 0x18 }
  - { offsetInCU: 0x233, offset: 0x15DA5, size: 0x8, addend: 0x0, symName: __ZNK4Room19getRoomAvailabilityEv, symObjAddr: 0x17C, symBinAddr: 0x100005460, symSize: 0x1C }
  - { offsetInCU: 0x6140, offset: 0x1BF15, size: 0x8, addend: 0x0, symName: __ZN8ScheduleC2Ev, symObjAddr: 0x0, symBinAddr: 0x10000547C, symSize: 0xB4 }
  - { offsetInCU: 0x616A, offset: 0x1BF3F, size: 0x8, addend: 0x0, symName: __ZN5StaffD1Ev, symObjAddr: 0xE0, symBinAddr: 0x100005530, symSize: 0x2C }
  - { offsetInCU: 0x6194, offset: 0x1BF69, size: 0x8, addend: 0x0, symName: __ZN8ScheduleC1Ev, symObjAddr: 0x10C, symBinAddr: 0x10000555C, symSize: 0x2C }
  - { offsetInCU: 0x61BE, offset: 0x1BF93, size: 0x8, addend: 0x0, symName: __ZN8ScheduleC2ERKNSt3__16chrono10time_pointINS1_12system_clockENS1_8durationIxNS0_5ratioILl1ELl1000000EEEEEEERK5StaffRK7PatientRK4RoomRK9Procedure, symObjAddr: 0x138, symBinAddr: 0x100005588, symSize: 0xD0 }
  - { offsetInCU: 0x622E, offset: 0x1C003, size: 0x8, addend: 0x0, symName: __ZN5StaffC1ERKS_, symObjAddr: 0x208, symBinAddr: 0x100005658, symSize: 0x34 }
  - { offsetInCU: 0x6260, offset: 0x1C035, size: 0x8, addend: 0x0, symName: __ZN7PatientC1ERKS_, symObjAddr: 0x23C, symBinAddr: 0x10000568C, symSize: 0x34 }
  - { offsetInCU: 0x6292, offset: 0x1C067, size: 0x8, addend: 0x0, symName: __ZN9ProcedureC1ERKS_, symObjAddr: 0x270, symBinAddr: 0x1000056C0, symSize: 0x34 }
  - { offsetInCU: 0x62C4, offset: 0x1C099, size: 0x8, addend: 0x0, symName: __ZN8ScheduleC1ERKNSt3__16chrono10time_pointINS1_12system_clockENS1_8durationIxNS0_5ratioILl1ELl1000000EEEEEEERK5StaffRK7PatientRK4RoomRK9Procedure, symObjAddr: 0x2A4, symBinAddr: 0x1000056F4, symSize: 0x54 }
  - { offsetInCU: 0x6334, offset: 0x1C109, size: 0x8, addend: 0x0, symName: __ZN8Schedule7setTimeERNSt3__16chrono10time_pointINS1_12system_clockENS1_8durationIxNS0_5ratioILl1ELl1000000EEEEEEE, symObjAddr: 0x2F8, symBinAddr: 0x100005748, symSize: 0x24 }
  - { offsetInCU: 0x6368, offset: 0x1C13D, size: 0x8, addend: 0x0, symName: __ZN8Schedule10setStafferER5Staff, symObjAddr: 0x31C, symBinAddr: 0x10000576C, symSize: 0x30 }
  - { offsetInCU: 0x639C, offset: 0x1C171, size: 0x8, addend: 0x0, symName: __ZN5StaffaSERKS_, symObjAddr: 0x34C, symBinAddr: 0x10000579C, symSize: 0x68 }
  - { offsetInCU: 0x63CA, offset: 0x1C19F, size: 0x8, addend: 0x0, symName: __ZN8Schedule10setPatientER7Patient, symObjAddr: 0x3B4, symBinAddr: 0x100005804, symSize: 0x30 }
  - { offsetInCU: 0x63FE, offset: 0x1C1D3, size: 0x8, addend: 0x0, symName: __ZN7PatientaSERKS_, symObjAddr: 0x3E4, symBinAddr: 0x100005834, symSize: 0x64 }
  - { offsetInCU: 0x642C, offset: 0x1C201, size: 0x8, addend: 0x0, symName: __ZN8Schedule7setRoomER4Room, symObjAddr: 0x448, symBinAddr: 0x100005898, symSize: 0x30 }
  - { offsetInCU: 0x6460, offset: 0x1C235, size: 0x8, addend: 0x0, symName: __ZNK8Schedule7getTimeEv, symObjAddr: 0x478, symBinAddr: 0x1000058C8, symSize: 0x20 }
  - { offsetInCU: 0x648B, offset: 0x1C260, size: 0x8, addend: 0x0, symName: __ZNK8Schedule10getStafferEv, symObjAddr: 0x498, symBinAddr: 0x1000058E8, symSize: 0x3C }
  - { offsetInCU: 0x64B1, offset: 0x1C286, size: 0x8, addend: 0x0, symName: __ZNK8Schedule10getPatientEv, symObjAddr: 0x4D4, symBinAddr: 0x100005924, symSize: 0x3C }
  - { offsetInCU: 0x64D7, offset: 0x1C2AC, size: 0x8, addend: 0x0, symName: __ZNK8Schedule7getRoomEv, symObjAddr: 0x510, symBinAddr: 0x100005960, symSize: 0x20 }
  - { offsetInCU: 0x64FD, offset: 0x1C2D2, size: 0x8, addend: 0x0, symName: __ZNK8Schedule12getProcedureEv, symObjAddr: 0x530, symBinAddr: 0x100005980, symSize: 0x3C }
  - { offsetInCU: 0x6523, offset: 0x1C2F8, size: 0x8, addend: 0x0, symName: __ZN5StaffD2Ev, symObjAddr: 0x6A4, symBinAddr: 0x1000059BC, symSize: 0x48 }
  - { offsetInCU: 0x654D, offset: 0x1C322, size: 0x8, addend: 0x0, symName: __ZN5StaffD0Ev, symObjAddr: 0x6EC, symBinAddr: 0x100005A04, symSize: 0x30 }
  - { offsetInCU: 0x6577, offset: 0x1C34C, size: 0x8, addend: 0x0, symName: __ZN5StaffC2ERKS_, symObjAddr: 0x71C, symBinAddr: 0x100005A34, symSize: 0xA8 }
  - { offsetInCU: 0x65A9, offset: 0x1C37E, size: 0x8, addend: 0x0, symName: __ZN7PatientC2ERKS_, symObjAddr: 0x8D4, symBinAddr: 0x100005ADC, symSize: 0xA4 }
  - { offsetInCU: 0x65DB, offset: 0x1C3B0, size: 0x8, addend: 0x0, symName: __ZN9ProcedureC2ERKS_, symObjAddr: 0x978, symBinAddr: 0x100005B80, symSize: 0x7C }
  - { offsetInCU: 0x6635, offset: 0x1C40A, size: 0x8, addend: 0x0, symName: __ZN4UseraSERKS_, symObjAddr: 0x1FB4, symBinAddr: 0x100005BFC, symSize: 0x8C }
  - { offsetInCU: 0x4A28, offset: 0x20E8E, size: 0x8, addend: 0x0, symName: __ZN5StaffC2Ev, symObjAddr: 0x0, symBinAddr: 0x100005C88, symSize: 0xAC }
  - { offsetInCU: 0x4A52, offset: 0x20EB8, size: 0x8, addend: 0x0, symName: __ZN5StaffC1Ev, symObjAddr: 0x168, symBinAddr: 0x100005D34, symSize: 0x2C }
  - { offsetInCU: 0x4A7C, offset: 0x20EE2, size: 0x8, addend: 0x0, symName: __ZN5StaffC2ENSt3__112basic_stringIcNS0_11char_traitsIcEENS0_9allocatorIcEEEES6_S6_S6_jhjsS6_j, symObjAddr: 0x194, symBinAddr: 0x100005D60, symSize: 0x154 }
  - { offsetInCU: 0x4B38, offset: 0x20F9E, size: 0x8, addend: 0x0, symName: __ZN5StaffC1ENSt3__112basic_stringIcNS0_11char_traitsIcEENS0_9allocatorIcEEEES6_S6_S6_jhjsS6_j, symObjAddr: 0x2E8, symBinAddr: 0x100005EB4, symSize: 0x94 }
  - { offsetInCU: 0x4BF3, offset: 0x21059, size: 0x8, addend: 0x0, symName: __ZN5Staff11setIdNumberEj, symObjAddr: 0x37C, symBinAddr: 0x100005F48, symSize: 0x20 }
  - { offsetInCU: 0x4C27, offset: 0x2108D, size: 0x8, addend: 0x0, symName: __ZN5Staff17setClearanceLevelEs, symObjAddr: 0x39C, symBinAddr: 0x100005F68, symSize: 0x20 }
  - { offsetInCU: 0x4C5B, offset: 0x210C1, size: 0x8, addend: 0x0, symName: __ZN5Staff11setJobTitleENSt3__112basic_stringIcNS0_11char_traitsIcEENS0_9allocatorIcEEEE, symObjAddr: 0x3BC, symBinAddr: 0x100005F88, symSize: 0x30 }
  - { offsetInCU: 0x4C90, offset: 0x210F6, size: 0x8, addend: 0x0, symName: __ZN5Staff13setDateOfHireEj, symObjAddr: 0x3EC, symBinAddr: 0x100005FB8, symSize: 0x20 }
  - { offsetInCU: 0x4CC4, offset: 0x2112A, size: 0x8, addend: 0x0, symName: __ZNK5Staff11getIdNumberEv, symObjAddr: 0x40C, symBinAddr: 0x100005FD8, symSize: 0x18 }
  - { offsetInCU: 0x4CEA, offset: 0x21150, size: 0x8, addend: 0x0, symName: __ZNK5Staff13getDateOfHireEv, symObjAddr: 0x424, symBinAddr: 0x100005FF0, symSize: 0x18 }
  - { offsetInCU: 0x4D10, offset: 0x21176, size: 0x8, addend: 0x0, symName: __ZNK5Staff17getClearanceLevelEv, symObjAddr: 0x43C, symBinAddr: 0x100006008, symSize: 0x18 }
  - { offsetInCU: 0x4D36, offset: 0x2119C, size: 0x8, addend: 0x0, symName: __ZNK5Staff11getJobTitleEv, symObjAddr: 0x454, symBinAddr: 0x100006020, symSize: 0x3C }
  - { offsetInCU: 0x488E, offset: 0x25A5A, size: 0x8, addend: 0x0, symName: __ZN4UserC2Ev, symObjAddr: 0x0, symBinAddr: 0x10000605C, symSize: 0x124 }
  - { offsetInCU: 0x48B8, offset: 0x25A84, size: 0x8, addend: 0x0, symName: __ZN4UserC1Ev, symObjAddr: 0x17C, symBinAddr: 0x100006180, symSize: 0x2C }
  - { offsetInCU: 0x48E2, offset: 0x25AAE, size: 0x8, addend: 0x0, symName: __ZN4UserC2ENSt3__112basic_stringIcNS0_11char_traitsIcEENS0_9allocatorIcEEEES6_S6_S6_jh, symObjAddr: 0x1A8, symBinAddr: 0x1000061AC, symSize: 0x138 }
  - { offsetInCU: 0x4964, offset: 0x25B30, size: 0x8, addend: 0x0, symName: __ZN4UserC1ENSt3__112basic_stringIcNS0_11char_traitsIcEENS0_9allocatorIcEEEES6_S6_S6_jh, symObjAddr: 0x2E0, symBinAddr: 0x1000062E4, symSize: 0x5C }
  - { offsetInCU: 0x49E6, offset: 0x25BB2, size: 0x8, addend: 0x0, symName: __ZN4User12setUserLoginENSt3__112basic_stringIcNS0_11char_traitsIcEENS0_9allocatorIcEEEE, symObjAddr: 0x33C, symBinAddr: 0x100006340, symSize: 0x30 }
  - { offsetInCU: 0x4A1B, offset: 0x25BE7, size: 0x8, addend: 0x0, symName: __ZN4User15setUserPasswordENSt3__112basic_stringIcNS0_11char_traitsIcEENS0_9allocatorIcEEEE, symObjAddr: 0x36C, symBinAddr: 0x100006370, symSize: 0x30 }
  - { offsetInCU: 0x4A50, offset: 0x25C1C, size: 0x8, addend: 0x0, symName: __ZN4User11setLastNameENSt3__112basic_stringIcNS0_11char_traitsIcEENS0_9allocatorIcEEEE, symObjAddr: 0x39C, symBinAddr: 0x1000063A0, symSize: 0x30 }
  - { offsetInCU: 0x4A85, offset: 0x25C51, size: 0x8, addend: 0x0, symName: __ZN4User12setFirstNameENSt3__112basic_stringIcNS0_11char_traitsIcEENS0_9allocatorIcEEEE, symObjAddr: 0x3CC, symBinAddr: 0x1000063D0, symSize: 0x30 }
  - { offsetInCU: 0x4ABA, offset: 0x25C86, size: 0x8, addend: 0x0, symName: __ZN4User14setDateOfBirthEj, symObjAddr: 0x3FC, symBinAddr: 0x100006400, symSize: 0x20 }
  - { offsetInCU: 0x4AEE, offset: 0x25CBA, size: 0x8, addend: 0x0, symName: __ZN4User9setGenderEh, symObjAddr: 0x41C, symBinAddr: 0x100006420, symSize: 0x20 }
  - { offsetInCU: 0x4B22, offset: 0x25CEE, size: 0x8, addend: 0x0, symName: __ZNK4User12getUserLoginEv, symObjAddr: 0x43C, symBinAddr: 0x100006440, symSize: 0x3C }
  - { offsetInCU: 0x4B48, offset: 0x25D14, size: 0x8, addend: 0x0, symName: __ZNK4User15getUserPasswordEv, symObjAddr: 0x478, symBinAddr: 0x10000647C, symSize: 0x3C }
  - { offsetInCU: 0x4B6E, offset: 0x25D3A, size: 0x8, addend: 0x0, symName: __ZNK4User11getLastNameEv, symObjAddr: 0x4B4, symBinAddr: 0x1000064B8, symSize: 0x3C }
  - { offsetInCU: 0x4B94, offset: 0x25D60, size: 0x8, addend: 0x0, symName: __ZNK4User12getFirstNameEv, symObjAddr: 0x4F0, symBinAddr: 0x1000064F4, symSize: 0x3C }
  - { offsetInCU: 0x4BBA, offset: 0x25D86, size: 0x8, addend: 0x0, symName: __ZNK4User14getDateOfBirthEv, symObjAddr: 0x52C, symBinAddr: 0x100006530, symSize: 0x18 }
  - { offsetInCU: 0x4BE0, offset: 0x25DAC, size: 0x8, addend: 0x0, symName: __ZNK4User9getGenderEv, symObjAddr: 0x544, symBinAddr: 0x100006548, symSize: 0x18 }
  - { offsetInCU: 0x4CBE, offset: 0x2AA9A, size: 0x8, addend: 0x0, symName: __ZNSt3__1neB7v160006ERKNS_20__map_const_iteratorINS_21__tree_const_iteratorINS_12__value_typeIiP4RoomEEPNS_11__tree_nodeIS5_PvEElEEEESD_, symObjAddr: 0x348, symBinAddr: 0x100006874, symSize: 0x30 }
  - { offsetInCU: 0x4CFB, offset: 0x2AAD7, size: 0x8, addend: 0x0, symName: __ZNSt3__1plB7v160006IcNS_11char_traitsIcEENS_9allocatorIcEEEENS_12basic_stringIT_T0_T1_EEOS9_PKS6_, symObjAddr: 0x3DC, symBinAddr: 0x100006908, symSize: 0x40 }
  - { offsetInCU: 0x4D53, offset: 0x2AB2F, size: 0x8, addend: 0x0, symName: __ZNSt3__1plB7v160006IcNS_11char_traitsIcEENS_9allocatorIcEEEENS_12basic_stringIT_T0_T1_EEOS9_SA_, symObjAddr: 0x41C, symBinAddr: 0x100006948, symSize: 0x40 }
  - { offsetInCU: 0x4DAB, offset: 0x2AB87, size: 0x8, addend: 0x0, symName: __ZNSt3__1plB7v160006IcNS_11char_traitsIcEENS_9allocatorIcEEEENS_12basic_stringIT_T0_T1_EEPKS6_OS9_, symObjAddr: 0x45C, symBinAddr: 0x100006988, symSize: 0x44 }
  - { offsetInCU: 0x4E36, offset: 0x2AC12, size: 0x8, addend: 0x0, symName: __ZNSt3__1neB7v160006ERKNS_21__tree_const_iteratorINS_12__value_typeIiP4RoomEEPNS_11__tree_nodeIS4_PvEElEESB_, symObjAddr: 0x88C, symBinAddr: 0x100006BEC, symSize: 0x34 }
  - { offsetInCU: 0x4E73, offset: 0x2AC4F, size: 0x8, addend: 0x0, symName: __ZNSt3__1eqB7v160006ERKNS_21__tree_const_iteratorINS_12__value_typeIiP4RoomEEPNS_11__tree_nodeIS4_PvEElEESB_, symObjAddr: 0x8C0, symBinAddr: 0x100006C20, symSize: 0x30 }
  - { offsetInCU: 0x4EB1, offset: 0x2AC8D, size: 0x8, addend: 0x0, symName: __ZNSt3__116__tree_next_iterB7v160006IPNS_15__tree_end_nodeIPNS_16__tree_node_baseIPvEEEES5_EET_T0_, symObjAddr: 0x928, symBinAddr: 0x100006C88, symSize: 0x90 }
  - { offsetInCU: 0x4EEF, offset: 0x2ACCB, size: 0x8, addend: 0x0, symName: __ZNSt3__110__tree_minB7v160006IPNS_16__tree_node_baseIPvEEEET_S5_, symObjAddr: 0x9B8, symBinAddr: 0x100006D18, symSize: 0x40 }
  - { offsetInCU: 0x4F24, offset: 0x2AD00, size: 0x8, addend: 0x0, symName: __ZNSt3__120__tree_is_left_childB7v160006IPNS_16__tree_node_baseIPvEEEEbT_, symObjAddr: 0x9F8, symBinAddr: 0x100006D58, symSize: 0x2C }
  - { offsetInCU: 0x4FBF, offset: 0x2AD9B, size: 0x8, addend: 0x0, symName: __ZNSt3__115__debug_db_swapB7v160006INS_12basic_stringIcNS_11char_traitsIcEENS_9allocatorIcEEEEEEvPT_S8_, symObjAddr: 0xBEC, symBinAddr: 0x100006F0C, symSize: 0x14 }
  - { offsetInCU: 0x4FFE, offset: 0x2ADDA, size: 0x8, addend: 0x0, symName: __ZNSt3__112__to_addressB7v160006IKcEEPT_S3_, symObjAddr: 0xD38, symBinAddr: 0x100007020, symSize: 0x14 }
  - { offsetInCU: 0x723D, offset: 0x2D019, size: 0x8, addend: 0x0, symName: __ZN30GenerateRoomAvailabilityReport18generateRoomReportERKNSt3__13mapIiP4RoomNS0_4lessIiEENS0_9allocatorINS0_4pairIKiS3_EEEEEE, symObjAddr: 0x0, symBinAddr: 0x100006560, symSize: 0x2DC }
  - { offsetInCU: 0x72A9, offset: 0x2D085, size: 0x8, addend: 0x0, symName: __ZNKSt3__13mapIiP4RoomNS_4lessIiEENS_9allocatorINS_4pairIKiS2_EEEEE5beginB7v160006Ev, symObjAddr: 0x310, symBinAddr: 0x10000683C, symSize: 0x38 }
  - { offsetInCU: 0x72CD, offset: 0x2D0A9, size: 0x8, addend: 0x0, symName: __ZNKSt3__13mapIiP4RoomNS_4lessIiEENS_9allocatorINS_4pairIKiS2_EEEEE3endB7v160006Ev, symObjAddr: 0x378, symBinAddr: 0x1000068A4, symSize: 0x38 }
  - { offsetInCU: 0x72F1, offset: 0x2D0CD, size: 0x8, addend: 0x0, symName: __ZNKSt3__120__map_const_iteratorINS_21__tree_const_iteratorINS_12__value_typeIiP4RoomEEPNS_11__tree_nodeIS5_PvEElEEEptB7v160006Ev, symObjAddr: 0x3B0, symBinAddr: 0x1000068DC, symSize: 0x2C }
  - { offsetInCU: 0x7315, offset: 0x2D0F1, size: 0x8, addend: 0x0, symName: __ZNSt3__112basic_stringIcNS_11char_traitsIcEENS_9allocatorIcEEEpLB7v160006ERKS5_, symObjAddr: 0x4A0, symBinAddr: 0x1000069CC, symSize: 0x2C }
  - { offsetInCU: 0x7348, offset: 0x2D124, size: 0x8, addend: 0x0, symName: __ZNSt3__112basic_stringIcNS_11char_traitsIcEENS_9allocatorIcEEEpLB7v160006EPKc, symObjAddr: 0x4CC, symBinAddr: 0x1000069F8, symSize: 0x2C }
  - { offsetInCU: 0x737B, offset: 0x2D157, size: 0x8, addend: 0x0, symName: __ZNSt3__120__map_const_iteratorINS_21__tree_const_iteratorINS_12__value_typeIiP4RoomEEPNS_11__tree_nodeIS5_PvEElEEEppB7v160006Ev, symObjAddr: 0x4F8, symBinAddr: 0x100006A24, symSize: 0x2C }
  - { offsetInCU: 0x739F, offset: 0x2D17B, size: 0x8, addend: 0x0, symName: __ZNKSt3__16__treeINS_12__value_typeIiP4RoomEENS_19__map_value_compareIiS4_NS_4lessIiEELb1EEENS_9allocatorIS4_EEE5beginB7v160006Ev, symObjAddr: 0x6F0, symBinAddr: 0x100006A50, symSize: 0x34 }
  - { offsetInCU: 0x73C3, offset: 0x2D19F, size: 0x8, addend: 0x0, symName: __ZNSt3__120__map_const_iteratorINS_21__tree_const_iteratorINS_12__value_typeIiP4RoomEEPNS_11__tree_nodeIS5_PvEElEEEC1B7v160006ESA_, symObjAddr: 0x724, symBinAddr: 0x100006A84, symSize: 0x34 }
  - { offsetInCU: 0x73FA, offset: 0x2D1D6, size: 0x8, addend: 0x0, symName: __ZNKSt3__16__treeINS_12__value_typeIiP4RoomEENS_19__map_value_compareIiS4_NS_4lessIiEELb1EEENS_9allocatorIS4_EEE12__begin_nodeB7v160006Ev, symObjAddr: 0x758, symBinAddr: 0x100006AB8, symSize: 0x14 }
  - { offsetInCU: 0x741E, offset: 0x2D1FA, size: 0x8, addend: 0x0, symName: __ZNSt3__121__tree_const_iteratorINS_12__value_typeIiP4RoomEEPNS_11__tree_nodeIS4_PvEElEC1B7v160006EPNS_15__tree_end_nodeIPNS_16__tree_node_baseIS6_EEEE, symObjAddr: 0x76C, symBinAddr: 0x100006ACC, symSize: 0x34 }
  - { offsetInCU: 0x7455, offset: 0x2D231, size: 0x8, addend: 0x0, symName: __ZNSt3__121__tree_const_iteratorINS_12__value_typeIiP4RoomEEPNS_11__tree_nodeIS4_PvEElEC2B7v160006EPNS_15__tree_end_nodeIPNS_16__tree_node_baseIS6_EEEE, symObjAddr: 0x7A0, symBinAddr: 0x100006B00, symSize: 0x20 }
  - { offsetInCU: 0x748C, offset: 0x2D268, size: 0x8, addend: 0x0, symName: __ZNSt3__120__map_const_iteratorINS_21__tree_const_iteratorINS_12__value_typeIiP4RoomEEPNS_11__tree_nodeIS5_PvEElEEEC2B7v160006ESA_, symObjAddr: 0x7C0, symBinAddr: 0x100006B20, symSize: 0x20 }
  - { offsetInCU: 0x74C3, offset: 0x2D29F, size: 0x8, addend: 0x0, symName: __ZNKSt3__16__treeINS_12__value_typeIiP4RoomEENS_19__map_value_compareIiS4_NS_4lessIiEELb1EEENS_9allocatorIS4_EEE3endB7v160006Ev, symObjAddr: 0x7E0, symBinAddr: 0x100006B40, symSize: 0x34 }
  - { offsetInCU: 0x74E7, offset: 0x2D2C3, size: 0x8, addend: 0x0, symName: __ZNKSt3__16__treeINS_12__value_typeIiP4RoomEENS_19__map_value_compareIiS4_NS_4lessIiEELb1EEENS_9allocatorIS4_EEE10__end_nodeB7v160006Ev, symObjAddr: 0x814, symBinAddr: 0x100006B74, symSize: 0x2C }
  - { offsetInCU: 0x750B, offset: 0x2D2E7, size: 0x8, addend: 0x0, symName: __ZNSt3__114pointer_traitsIPNS_15__tree_end_nodeIPNS_16__tree_node_baseIPvEEEEE10pointer_toB7v160006ERS6_, symObjAddr: 0x840, symBinAddr: 0x100006BA0, symSize: 0x14 }
  - { offsetInCU: 0x752E, offset: 0x2D30A, size: 0x8, addend: 0x0, symName: __ZNKSt3__117__compressed_pairINS_15__tree_end_nodeIPNS_16__tree_node_baseIPvEEEENS_9allocatorINS_11__tree_nodeINS_12__value_typeIiP4RoomEES3_EEEEE5firstB7v160006Ev, symObjAddr: 0x854, symBinAddr: 0x100006BB4, symSize: 0x24 }
  - { offsetInCU: 0x7552, offset: 0x2D32E, size: 0x8, addend: 0x0, symName: __ZNKSt3__122__compressed_pair_elemINS_15__tree_end_nodeIPNS_16__tree_node_baseIPvEEEELi0ELb0EE5__getB7v160006Ev, symObjAddr: 0x878, symBinAddr: 0x100006BD8, symSize: 0x14 }
  - { offsetInCU: 0x7576, offset: 0x2D352, size: 0x8, addend: 0x0, symName: __ZNSt3__121__tree_const_iteratorINS_12__value_typeIiP4RoomEEPNS_11__tree_nodeIS4_PvEElEppB7v160006Ev, symObjAddr: 0x8F0, symBinAddr: 0x100006C50, symSize: 0x38 }
  - { offsetInCU: 0x759A, offset: 0x2D376, size: 0x8, addend: 0x0, symName: __ZNKSt3__116__tree_node_baseIPvE15__parent_unsafeB7v160006Ev, symObjAddr: 0xA24, symBinAddr: 0x100006D84, symSize: 0x18 }
  - { offsetInCU: 0x75BE, offset: 0x2D39A, size: 0x8, addend: 0x0, symName: __ZNSt3__114pointer_traitsIPKNS_4pairIKiP4RoomEEE10pointer_toB7v160006ERS6_, symObjAddr: 0xA3C, symBinAddr: 0x100006D9C, symSize: 0x14 }
  - { offsetInCU: 0x75E1, offset: 0x2D3BD, size: 0x8, addend: 0x0, symName: __ZNKSt3__121__tree_const_iteratorINS_12__value_typeIiP4RoomEEPNS_11__tree_nodeIS4_PvEElEptB7v160006Ev, symObjAddr: 0xA50, symBinAddr: 0x100006DB0, symSize: 0x2C }
  - { offsetInCU: 0x7605, offset: 0x2D3E1, size: 0x8, addend: 0x0, symName: __ZNKSt3__112__value_typeIiP4RoomE11__get_valueB7v160006Ev, symObjAddr: 0xA7C, symBinAddr: 0x100006DDC, symSize: 0x14 }
  - { offsetInCU: 0x7629, offset: 0x2D405, size: 0x8, addend: 0x0, symName: __ZNSt3__114pointer_traitsIPKNS_12__value_typeIiP4RoomEEE10pointer_toB7v160006ERS5_, symObjAddr: 0xA90, symBinAddr: 0x100006DF0, symSize: 0x14 }
  - { offsetInCU: 0x764C, offset: 0x2D428, size: 0x8, addend: 0x0, symName: __ZNKSt3__121__tree_const_iteratorINS_12__value_typeIiP4RoomEEPNS_11__tree_nodeIS4_PvEElE8__get_npB7v160006Ev, symObjAddr: 0xAA4, symBinAddr: 0x100006E04, symSize: 0x18 }
  - { offsetInCU: 0x7670, offset: 0x2D44C, size: 0x8, addend: 0x0, symName: __ZNSt3__112basic_stringIcNS_11char_traitsIcEENS_9allocatorIcEEEC1B7v160006EOS5_, symObjAddr: 0xABC, symBinAddr: 0x100006E1C, symSize: 0x34 }
  - { offsetInCU: 0x76A7, offset: 0x2D483, size: 0x8, addend: 0x0, symName: __ZNSt3__112basic_stringIcNS_11char_traitsIcEENS_9allocatorIcEEEC2B7v160006EOS5_, symObjAddr: 0xAF0, symBinAddr: 0x100006E50, symSize: 0x84 }
  - { offsetInCU: 0x76DE, offset: 0x2D4BA, size: 0x8, addend: 0x0, symName: __ZNKSt3__112basic_stringIcNS_11char_traitsIcEENS_9allocatorIcEEE9__is_longB7v160006Ev, symObjAddr: 0xBB4, symBinAddr: 0x100006ED4, symSize: 0x38 }
  - { offsetInCU: 0x7702, offset: 0x2D4DE, size: 0x8, addend: 0x0, symName: __ZNKSt3__117__compressed_pairINS_12basic_stringIcNS_11char_traitsIcEENS_9allocatorIcEEE5__repES5_E5firstB7v160006Ev, symObjAddr: 0xC38, symBinAddr: 0x100006F20, symSize: 0x24 }
  - { offsetInCU: 0x7726, offset: 0x2D502, size: 0x8, addend: 0x0, symName: __ZNKSt3__122__compressed_pair_elemINS_12basic_stringIcNS_11char_traitsIcEENS_9allocatorIcEEE5__repELi0ELb0EE5__getB7v160006Ev, symObjAddr: 0xC5C, symBinAddr: 0x100006F44, symSize: 0x14 }
  - { offsetInCU: 0x774A, offset: 0x2D526, size: 0x8, addend: 0x0, symName: __ZNSt3__112basic_stringIcNS_11char_traitsIcEENS_9allocatorIcEEE6appendB7v160006ERKS5_, symObjAddr: 0xC70, symBinAddr: 0x100006F58, symSize: 0x4C }
  - { offsetInCU: 0x777D, offset: 0x2D559, size: 0x8, addend: 0x0, symName: __ZNKSt3__112basic_stringIcNS_11char_traitsIcEENS_9allocatorIcEEE4dataB7v160006Ev, symObjAddr: 0xCBC, symBinAddr: 0x100006FA4, symSize: 0x28 }
  - { offsetInCU: 0x77A1, offset: 0x2D57D, size: 0x8, addend: 0x0, symName: __ZNKSt3__112basic_stringIcNS_11char_traitsIcEENS_9allocatorIcEEE4sizeB7v160006Ev, symObjAddr: 0xCE4, symBinAddr: 0x100006FCC, symSize: 0x54 }
  - { offsetInCU: 0x77C5, offset: 0x2D5A1, size: 0x8, addend: 0x0, symName: __ZNKSt3__112basic_stringIcNS_11char_traitsIcEENS_9allocatorIcEEE13__get_pointerB7v160006Ev, symObjAddr: 0xD4C, symBinAddr: 0x100007034, symSize: 0x54 }
  - { offsetInCU: 0x77E9, offset: 0x2D5C5, size: 0x8, addend: 0x0, symName: __ZNKSt3__112basic_stringIcNS_11char_traitsIcEENS_9allocatorIcEEE18__get_long_pointerB7v160006Ev, symObjAddr: 0xDA0, symBinAddr: 0x100007088, symSize: 0x28 }
  - { offsetInCU: 0x780D, offset: 0x2D5E9, size: 0x8, addend: 0x0, symName: __ZNKSt3__112basic_stringIcNS_11char_traitsIcEENS_9allocatorIcEEE19__get_short_pointerB7v160006Ev, symObjAddr: 0xDC8, symBinAddr: 0x1000070B0, symSize: 0x28 }
  - { offsetInCU: 0x7831, offset: 0x2D60D, size: 0x8, addend: 0x0, symName: __ZNSt3__114pointer_traitsIPKcE10pointer_toB7v160006ERS1_, symObjAddr: 0xDF0, symBinAddr: 0x1000070D8, symSize: 0x14 }
  - { offsetInCU: 0x7854, offset: 0x2D630, size: 0x8, addend: 0x0, symName: __ZNKSt3__112basic_stringIcNS_11char_traitsIcEENS_9allocatorIcEEE15__get_long_sizeB7v160006Ev, symObjAddr: 0xE04, symBinAddr: 0x1000070EC, symSize: 0x28 }
  - { offsetInCU: 0x7878, offset: 0x2D654, size: 0x8, addend: 0x0, symName: __ZNKSt3__112basic_stringIcNS_11char_traitsIcEENS_9allocatorIcEEE16__get_short_sizeB7v160006Ev, symObjAddr: 0xE2C, symBinAddr: 0x100007114, symSize: 0x34 }
  - { offsetInCU: 0x55B9, offset: 0x32C81, size: 0x8, addend: 0x0, symName: __ZNSt3__17getlineB7v160006IcNS_11char_traitsIcEENS_9allocatorIcEEEERNS_13basic_istreamIT_T0_EES9_RNS_12basic_stringIS6_S7_T1_EE, symObjAddr: 0x4D0, symBinAddr: 0x1000075EC, symSize: 0x5C }
  - { offsetInCU: 0x595B, offset: 0x33023, size: 0x8, addend: 0x0, symName: __ZNSt3__1rsB7v160006IcNS_11char_traitsIcEENS_9allocatorIcEEEERNS_13basic_istreamIT_T0_EES9_RNS_12basic_stringIS6_S7_T1_EE, symObjAddr: 0x654, symBinAddr: 0x100007770, symSize: 0x318 }
  - { offsetInCU: 0x5A2C, offset: 0x330F4, size: 0x8, addend: 0x0, symName: __ZNSt3__1eqB7v160006INS_9allocatorIcEEEEbRKNS_12basic_stringIcNS_11char_traitsIcEET_EES9_, symObjAddr: 0x96C, symBinAddr: 0x100007A88, symSize: 0x148 }
  - { offsetInCU: 0x5AB5, offset: 0x3317D, size: 0x8, addend: 0x0, symName: __ZNSt3__17getlineB7v160006IcNS_11char_traitsIcEENS_9allocatorIcEEEERNS_13basic_istreamIT_T0_EES9_RNS_12basic_stringIS6_S7_T1_EES6_, symObjAddr: 0x1AF0, symBinAddr: 0x100008A2C, symSize: 0x238 }
  - { offsetInCU: 0x5B75, offset: 0x3323D, size: 0x8, addend: 0x0, symName: __ZNSt3__125__debug_db_invalidate_allB7v160006INS_12basic_stringIcNS_11char_traitsIcEENS_9allocatorIcEEEEEEvPT_, symObjAddr: 0x20DC, symBinAddr: 0x100008FC4, symSize: 0x10 }
  - { offsetInCU: 0x5DDB, offset: 0x334A3, size: 0x8, addend: 0x0, symName: __ZNSt3__19use_facetB7v160006INS_5ctypeIcEEEERKT_RKNS_6localeE, symObjAddr: 0x23E4, symBinAddr: 0x100009200, symSize: 0x2C }
  - { offsetInCU: 0x61C6, offset: 0x3388E, size: 0x8, addend: 0x0, symName: __ZNSt3__118__constexpr_memcmpB7v160006IcEEiPKT_S3_m, symObjAddr: 0x2994, symBinAddr: 0x1000096A0, symSize: 0x34 }
  - { offsetInCU: 0x8462, offset: 0x35B2A, size: 0x8, addend: 0x0, symName: __ZN17LoginVerification14userInDatabaseER4User, symObjAddr: 0x0, symBinAddr: 0x100007148, symSize: 0x2F4 }
  - { offsetInCU: 0x8696, offset: 0x35D5E, size: 0x8, addend: 0x0, symName: __ZNSt3__113basic_fstreamIcNS_11char_traitsIcEEEC1Ev, symObjAddr: 0x2F4, symBinAddr: 0x10000743C, symSize: 0x100 }
  - { offsetInCU: 0x86C1, offset: 0x35D89, size: 0x8, addend: 0x0, symName: __ZNSt3__113basic_fstreamIcNS_11char_traitsIcEEE4openEPKcj, symObjAddr: 0x3F4, symBinAddr: 0x10000753C, symSize: 0x84 }
  - { offsetInCU: 0x8706, offset: 0x35DCE, size: 0x8, addend: 0x0, symName: __ZNKSt3__113basic_fstreamIcNS_11char_traitsIcEEE7is_openEv, symObjAddr: 0x4A4, symBinAddr: 0x1000075C0, symSize: 0x2C }
  - { offsetInCU: 0x872E, offset: 0x35DF6, size: 0x8, addend: 0x0, symName: __ZNKSt3__19basic_iosIcNS_11char_traitsIcEEEcvbB7v160006Ev, symObjAddr: 0x52C, symBinAddr: 0x100007648, symSize: 0x2C }
  - { offsetInCU: 0x87A1, offset: 0x35E69, size: 0x8, addend: 0x0, symName: __ZNSt3__119basic_istringstreamIcNS_11char_traitsIcEENS_9allocatorIcEEEC1B7v160006ERKNS_12basic_stringIcS2_S4_EEj, symObjAddr: 0x558, symBinAddr: 0x100007674, symSize: 0xFC }
  - { offsetInCU: 0x87ED, offset: 0x35EB5, size: 0x8, addend: 0x0, symName: __ZNSt3__119basic_istringstreamIcNS_11char_traitsIcEENS_9allocatorIcEEED1Ev, symObjAddr: 0xAB4, symBinAddr: 0x100007BD0, symSize: 0x40 }
  - { offsetInCU: 0x8818, offset: 0x35EE0, size: 0x8, addend: 0x0, symName: __ZNSt3__113basic_fstreamIcNS_11char_traitsIcEEE5closeEv, symObjAddr: 0xAF4, symBinAddr: 0x100007C10, symSize: 0x58 }
  - { offsetInCU: 0x8845, offset: 0x35F0D, size: 0x8, addend: 0x0, symName: __ZNSt3__113basic_fstreamIcNS_11char_traitsIcEEED1Ev, symObjAddr: 0xB4C, symBinAddr: 0x100007C68, symSize: 0x40 }
  - { offsetInCU: 0x886E, offset: 0x35F36, size: 0x8, addend: 0x0, symName: __ZN17LoginVerification14userInDatabaseERKNSt3__112basic_stringIcNS0_11char_traitsIcEENS0_9allocatorIcEEEE, symObjAddr: 0xB8C, symBinAddr: 0x100007CA8, symSize: 0x2B0 }
  - { offsetInCU: 0x88ED, offset: 0x35FB5, size: 0x8, addend: 0x0, symName: __ZN17LoginVerification13checkPasswordER4User, symObjAddr: 0xE3C, symBinAddr: 0x100007F58, symSize: 0x334 }
  - { offsetInCU: 0x898A, offset: 0x36052, size: 0x8, addend: 0x0, symName: __ZN17LoginVerification13checkPasswordERKNSt3__112basic_stringIcNS0_11char_traitsIcEENS0_9allocatorIcEEEES8_, symObjAddr: 0x1170, symBinAddr: 0x10000828C, symSize: 0x2E0 }
  - { offsetInCU: 0x8A19, offset: 0x360E1, size: 0x8, addend: 0x0, symName: __ZNSt3__119basic_istringstreamIcNS_11char_traitsIcEENS_9allocatorIcEEED2Ev, symObjAddr: 0x1450, symBinAddr: 0x10000856C, symSize: 0x64 }
  - { offsetInCU: 0x8A51, offset: 0x36119, size: 0x8, addend: 0x0, symName: __ZTv0_n24_NSt3__119basic_istringstreamIcNS_11char_traitsIcEENS_9allocatorIcEEED1Ev, symObjAddr: 0x14B4, symBinAddr: 0x1000085D0, symSize: 0x28 }
  - { offsetInCU: 0x8A6D, offset: 0x36135, size: 0x8, addend: 0x0, symName: __ZNSt3__115basic_stringbufIcNS_11char_traitsIcEENS_9allocatorIcEEED1Ev, symObjAddr: 0x14DC, symBinAddr: 0x1000085F8, symSize: 0x2C }
  - { offsetInCU: 0x8A99, offset: 0x36161, size: 0x8, addend: 0x0, symName: __ZNSt3__115basic_stringbufIcNS_11char_traitsIcEENS_9allocatorIcEEED2Ev, symObjAddr: 0x1508, symBinAddr: 0x100008624, symSize: 0x48 }
  - { offsetInCU: 0x8AC5, offset: 0x3618D, size: 0x8, addend: 0x0, symName: __ZNSt3__113basic_fstreamIcNS_11char_traitsIcEEED2Ev, symObjAddr: 0x1550, symBinAddr: 0x10000866C, symSize: 0x6C }
  - { offsetInCU: 0x8AFB, offset: 0x361C3, size: 0x8, addend: 0x0, symName: __ZThn16_NSt3__113basic_fstreamIcNS_11char_traitsIcEEED1Ev, symObjAddr: 0x15BC, symBinAddr: 0x1000086D8, symSize: 0x1C }
  - { offsetInCU: 0x8B11, offset: 0x361D9, size: 0x8, addend: 0x0, symName: __ZTv0_n24_NSt3__113basic_fstreamIcNS_11char_traitsIcEEED1Ev, symObjAddr: 0x15D8, symBinAddr: 0x1000086F4, symSize: 0x28 }
  - { offsetInCU: 0x8B27, offset: 0x361EF, size: 0x8, addend: 0x0, symName: __ZNSt3__113basic_fstreamIcNS_11char_traitsIcEEED0Ev, symObjAddr: 0x1600, symBinAddr: 0x10000871C, symSize: 0x30 }
  - { offsetInCU: 0x8B51, offset: 0x36219, size: 0x8, addend: 0x0, symName: __ZThn16_NSt3__113basic_fstreamIcNS_11char_traitsIcEEED0Ev, symObjAddr: 0x1630, symBinAddr: 0x10000874C, symSize: 0x18 }
  - { offsetInCU: 0x8B67, offset: 0x3622F, size: 0x8, addend: 0x0, symName: __ZTv0_n24_NSt3__113basic_fstreamIcNS_11char_traitsIcEEED0Ev, symObjAddr: 0x1648, symBinAddr: 0x100008764, symSize: 0x20 }
  - { offsetInCU: 0x8B81, offset: 0x36249, size: 0x8, addend: 0x0, symName: __ZNSt3__19basic_iosIcNS_11char_traitsIcEEEC2B7v160006Ev, symObjAddr: 0x1848, symBinAddr: 0x100008784, symSize: 0x44 }
  - { offsetInCU: 0x8BA9, offset: 0x36271, size: 0x8, addend: 0x0, symName: __ZNSt3__114basic_iostreamIcNS_11char_traitsIcEEEC2B7v160006EPNS_15basic_streambufIcS2_EE, symObjAddr: 0x188C, symBinAddr: 0x1000087C8, symSize: 0xAC }
  - { offsetInCU: 0x8BED, offset: 0x362B5, size: 0x8, addend: 0x0, symName: __ZNSt3__18ios_baseC2B7v160006Ev, symObjAddr: 0x1938, symBinAddr: 0x100008874, symSize: 0x24 }
  - { offsetInCU: 0x8C14, offset: 0x362DC, size: 0x8, addend: 0x0, symName: __ZNSt3__113basic_istreamIcNS_11char_traitsIcEEEC2B7v160006EPNS_15basic_streambufIcS2_EE, symObjAddr: 0x195C, symBinAddr: 0x100008898, symSize: 0x64 }
  - { offsetInCU: 0x8C57, offset: 0x3631F, size: 0x8, addend: 0x0, symName: __ZNSt3__113basic_ostreamIcNS_11char_traitsIcEEEC2B7v160006Ev, symObjAddr: 0x19C0, symBinAddr: 0x1000088FC, symSize: 0x34 }
  - { offsetInCU: 0x8C8A, offset: 0x36352, size: 0x8, addend: 0x0, symName: __ZNSt3__19basic_iosIcNS_11char_traitsIcEEE4initB7v160006EPNS_15basic_streambufIcS2_EE, symObjAddr: 0x19F4, symBinAddr: 0x100008930, symSize: 0x44 }
  - { offsetInCU: 0x8CC1, offset: 0x36389, size: 0x8, addend: 0x0, symName: __ZNSt3__111char_traitsIcE3eofEv, symObjAddr: 0x1A38, symBinAddr: 0x100008974, symSize: 0x8 }
  - { offsetInCU: 0x8CD5, offset: 0x3639D, size: 0x8, addend: 0x0, symName: __ZNSt3__19basic_iosIcNS_11char_traitsIcEEE5clearB7v160006Ej, symObjAddr: 0x1A40, symBinAddr: 0x10000897C, symSize: 0x2C }
  - { offsetInCU: 0x8D08, offset: 0x363D0, size: 0x8, addend: 0x0, symName: __ZNSt3__19basic_iosIcNS_11char_traitsIcEEE8setstateB7v160006Ej, symObjAddr: 0x1A6C, symBinAddr: 0x1000089A8, symSize: 0x2C }
  - { offsetInCU: 0x8D3A, offset: 0x36402, size: 0x8, addend: 0x0, symName: __ZNSt3__18ios_base8setstateB7v160006Ej, symObjAddr: 0x1A98, symBinAddr: 0x1000089D4, symSize: 0x34 }
  - { offsetInCU: 0x8D71, offset: 0x36439, size: 0x8, addend: 0x0, symName: __ZNKSt3__113basic_filebufIcNS_11char_traitsIcEEE7is_openEv, symObjAddr: 0x1ACC, symBinAddr: 0x100008A08, symSize: 0x24 }
  - { offsetInCU: 0x8D97, offset: 0x3645F, size: 0x8, addend: 0x0, symName: __ZNKSt3__19basic_iosIcNS_11char_traitsIcEEE5widenB7v160006Ec, symObjAddr: 0x1D28, symBinAddr: 0x100008C64, symSize: 0x84 }
  - { offsetInCU: 0x8DEC, offset: 0x364B4, size: 0x8, addend: 0x0, symName: __ZNKSt3__113basic_istreamIcNS_11char_traitsIcEEE6sentrycvbB7v160006Ev, symObjAddr: 0x1DAC, symBinAddr: 0x100008CE8, symSize: 0x1C }
  - { offsetInCU: 0x8E0F, offset: 0x364D7, size: 0x8, addend: 0x0, symName: __ZNSt3__112basic_stringIcNS_11char_traitsIcEENS_9allocatorIcEEE5clearB7v160006Ev, symObjAddr: 0x1DC8, symBinAddr: 0x100008D04, symSize: 0x88 }
  - { offsetInCU: 0x8E36, offset: 0x364FE, size: 0x8, addend: 0x0, symName: __ZNKSt3__19basic_iosIcNS_11char_traitsIcEEE5rdbufB7v160006Ev, symObjAddr: 0x1E50, symBinAddr: 0x100008D8C, symSize: 0x24 }
  - { offsetInCU: 0x8E5E, offset: 0x36526, size: 0x8, addend: 0x0, symName: __ZNSt3__115basic_streambufIcNS_11char_traitsIcEEE6sbumpcB7v160006Ev, symObjAddr: 0x1E74, symBinAddr: 0x100008DB0, symSize: 0x78 }
  - { offsetInCU: 0x8E82, offset: 0x3654A, size: 0x8, addend: 0x0, symName: __ZNSt3__111char_traitsIcE11eq_int_typeEii, symObjAddr: 0x1EEC, symBinAddr: 0x100008E28, symSize: 0x28 }
  - { offsetInCU: 0x8EB3, offset: 0x3657B, size: 0x8, addend: 0x0, symName: __ZNSt3__111char_traitsIcE12to_char_typeEi, symObjAddr: 0x1F14, symBinAddr: 0x100008E50, symSize: 0x18 }
  - { offsetInCU: 0x8ED6, offset: 0x3659E, size: 0x8, addend: 0x0, symName: __ZNSt3__111char_traitsIcE2eqEcc, symObjAddr: 0x1F2C, symBinAddr: 0x100008E68, symSize: 0x28 }
  - { offsetInCU: 0x8F07, offset: 0x365CF, size: 0x8, addend: 0x0, symName: __ZNKSt3__112basic_stringIcNS_11char_traitsIcEENS_9allocatorIcEEE8max_sizeB7v160006Ev, symObjAddr: 0x1FA8, symBinAddr: 0x100008E90, symSize: 0xAC }
  - { offsetInCU: 0x8F58, offset: 0x36620, size: 0x8, addend: 0x0, symName: __ZNSt3__18ios_base18__setstate_nothrowB7v160006Ej, symObjAddr: 0x2054, symBinAddr: 0x100008F3C, symSize: 0x64 }
  - { offsetInCU: 0x8F8B, offset: 0x36653, size: 0x8, addend: 0x0, symName: __ZNKSt3__19basic_iosIcNS_11char_traitsIcEEE10exceptionsB7v160006Ev, symObjAddr: 0x20B8, symBinAddr: 0x100008FA0, symSize: 0x24 }
  - { offsetInCU: 0x8FAF, offset: 0x36677, size: 0x8, addend: 0x0, symName: __ZNSt3__111char_traitsIcE6assignERcRKc, symObjAddr: 0x2124, symBinAddr: 0x100008FD4, symSize: 0x24 }
  - { offsetInCU: 0x8FE0, offset: 0x366A8, size: 0x8, addend: 0x0, symName: __ZNSt3__112basic_stringIcNS_11char_traitsIcEENS_9allocatorIcEEE18__get_long_pointerB7v160006Ev, symObjAddr: 0x2148, symBinAddr: 0x100008FF8, symSize: 0x28 }
  - { offsetInCU: 0x9004, offset: 0x366CC, size: 0x8, addend: 0x0, symName: __ZNSt3__112basic_stringIcNS_11char_traitsIcEENS_9allocatorIcEEE15__set_long_sizeB7v160006Em, symObjAddr: 0x2170, symBinAddr: 0x100009020, symSize: 0x38 }
  - { offsetInCU: 0x9037, offset: 0x366FF, size: 0x8, addend: 0x0, symName: __ZNSt3__112basic_stringIcNS_11char_traitsIcEENS_9allocatorIcEEE19__get_short_pointerB7v160006Ev, symObjAddr: 0x21A8, symBinAddr: 0x100009058, symSize: 0x28 }
  - { offsetInCU: 0x905B, offset: 0x36723, size: 0x8, addend: 0x0, symName: __ZNSt3__112basic_stringIcNS_11char_traitsIcEENS_9allocatorIcEEE16__set_short_sizeB7v160006Em, symObjAddr: 0x21D0, symBinAddr: 0x100009080, symSize: 0x78 }
  - { offsetInCU: 0x908E, offset: 0x36756, size: 0x8, addend: 0x0, symName: __ZNSt3__114pointer_traitsIPcE10pointer_toB7v160006ERc, symObjAddr: 0x2280, symBinAddr: 0x1000090F8, symSize: 0x14 }
  - { offsetInCU: 0x90B1, offset: 0x36779, size: 0x8, addend: 0x0, symName: __ZNKSt3__18ios_base5rdbufB7v160006Ev, symObjAddr: 0x2294, symBinAddr: 0x10000910C, symSize: 0x18 }
  - { offsetInCU: 0x90D5, offset: 0x3679D, size: 0x8, addend: 0x0, symName: __ZNSt3__111char_traitsIcE11to_int_typeEc, symObjAddr: 0x22AC, symBinAddr: 0x100009124, symSize: 0x14 }
  - { offsetInCU: 0x9102, offset: 0x367CA, size: 0x8, addend: 0x0, symName: __ZNSt3__116allocator_traitsINS_9allocatorIcEEE8max_sizeB7v160006IS2_vEEmRKS2_, symObjAddr: 0x231C, symBinAddr: 0x100009138, symSize: 0x24 }
  - { offsetInCU: 0x912F, offset: 0x367F7, size: 0x8, addend: 0x0, symName: __ZNKSt3__112basic_stringIcNS_11char_traitsIcEENS_9allocatorIcEEE7__allocB7v160006Ev, symObjAddr: 0x2340, symBinAddr: 0x10000915C, symSize: 0x24 }
  - { offsetInCU: 0x9153, offset: 0x3681B, size: 0x8, addend: 0x0, symName: __ZNSt3__114numeric_limitsImE3maxB7v160006Ev, symObjAddr: 0x2364, symBinAddr: 0x100009180, symSize: 0x14 }
  - { offsetInCU: 0x9167, offset: 0x3682F, size: 0x8, addend: 0x0, symName: __ZNKSt3__19allocatorIcE8max_sizeB7v160006Ev, symObjAddr: 0x2378, symBinAddr: 0x100009194, symSize: 0x14 }
  - { offsetInCU: 0x918B, offset: 0x36853, size: 0x8, addend: 0x0, symName: __ZNKSt3__117__compressed_pairINS_12basic_stringIcNS_11char_traitsIcEENS_9allocatorIcEEE5__repES5_E6secondB7v160006Ev, symObjAddr: 0x238C, symBinAddr: 0x1000091A8, symSize: 0x24 }
  - { offsetInCU: 0x91AF, offset: 0x36877, size: 0x8, addend: 0x0, symName: __ZNKSt3__122__compressed_pair_elemINS_9allocatorIcEELi1ELb1EE5__getB7v160006Ev, symObjAddr: 0x23B0, symBinAddr: 0x1000091CC, symSize: 0x14 }
  - { offsetInCU: 0x91D3, offset: 0x3689B, size: 0x8, addend: 0x0, symName: __ZNSt3__123__libcpp_numeric_limitsImLb1EE3maxB7v160006Ev, symObjAddr: 0x23C4, symBinAddr: 0x1000091E0, symSize: 0x8 }
  - { offsetInCU: 0x91E7, offset: 0x368AF, size: 0x8, addend: 0x0, symName: __ZNKSt3__18ios_base10exceptionsB7v160006Ev, symObjAddr: 0x23CC, symBinAddr: 0x1000091E8, symSize: 0x18 }
  - { offsetInCU: 0x923B, offset: 0x36903, size: 0x8, addend: 0x0, symName: __ZNKSt3__15ctypeIcE5widenB7v160006Ec, symObjAddr: 0x2410, symBinAddr: 0x10000922C, symSize: 0x38 }
  - { offsetInCU: 0x926E, offset: 0x36936, size: 0x8, addend: 0x0, symName: __ZNKSt3__19basic_iosIcNS_11char_traitsIcEEE4failB7v160006Ev, symObjAddr: 0x2448, symBinAddr: 0x100009264, symSize: 0x28 }
  - { offsetInCU: 0x9292, offset: 0x3695A, size: 0x8, addend: 0x0, symName: __ZNKSt3__18ios_base4failB7v160006Ev, symObjAddr: 0x2470, symBinAddr: 0x10000928C, symSize: 0x28 }
  - { offsetInCU: 0x92B8, offset: 0x36980, size: 0x8, addend: 0x0, symName: __ZNSt3__115basic_stringbufIcNS_11char_traitsIcEENS_9allocatorIcEEEC1B7v160006ERKNS_12basic_stringIcS2_S4_EEj, symObjAddr: 0x2498, symBinAddr: 0x1000092B4, symSize: 0x3C }
  - { offsetInCU: 0x92FC, offset: 0x369C4, size: 0x8, addend: 0x0, symName: __ZNSt3__115basic_stringbufIcNS_11char_traitsIcEENS_9allocatorIcEEEC2B7v160006ERKNS_12basic_stringIcS2_S4_EEj, symObjAddr: 0x24D4, symBinAddr: 0x1000092F0, symSize: 0xB4 }
  - { offsetInCU: 0x9341, offset: 0x36A09, size: 0x8, addend: 0x0, symName: __ZNKSt3__112basic_stringIcNS_11char_traitsIcEENS_9allocatorIcEEE13get_allocatorB7v160006Ev, symObjAddr: 0x2588, symBinAddr: 0x1000093A4, symSize: 0x24 }
  - { offsetInCU: 0x9364, offset: 0x36A2C, size: 0x8, addend: 0x0, symName: __ZNSt3__112basic_stringIcNS_11char_traitsIcEENS_9allocatorIcEEEC1B7v160006ERKS4_, symObjAddr: 0x25AC, symBinAddr: 0x1000093C8, symSize: 0x34 }
  - { offsetInCU: 0x939B, offset: 0x36A63, size: 0x8, addend: 0x0, symName: __ZNSt3__112basic_stringIcNS_11char_traitsIcEENS_9allocatorIcEEEC2B7v160006ERKS4_, symObjAddr: 0x25E0, symBinAddr: 0x1000093FC, symSize: 0x50 }
  - { offsetInCU: 0x93D2, offset: 0x36A9A, size: 0x8, addend: 0x0, symName: __ZNSt3__117__compressed_pairINS_12basic_stringIcNS_11char_traitsIcEENS_9allocatorIcEEE5__repES5_EC1B7v160006INS_18__default_init_tagERKS5_EEOT_OT0_, symObjAddr: 0x2630, symBinAddr: 0x10000944C, symSize: 0x3C }
  - { offsetInCU: 0x9428, offset: 0x36AF0, size: 0x8, addend: 0x0, symName: __ZNSt3__117__compressed_pairINS_12basic_stringIcNS_11char_traitsIcEENS_9allocatorIcEEE5__repES5_EC2B7v160006INS_18__default_init_tagERKS5_EEOT_OT0_, symObjAddr: 0x266C, symBinAddr: 0x100009488, symSize: 0x40 }
  - { offsetInCU: 0x947F, offset: 0x36B47, size: 0x8, addend: 0x0, symName: __ZNSt3__122__compressed_pair_elemINS_9allocatorIcEELi1ELb1EEC2B7v160006IRKS2_vEEOT_, symObjAddr: 0x26AC, symBinAddr: 0x1000094C8, symSize: 0x18 }
  - { offsetInCU: 0x94BF, offset: 0x36B87, size: 0x8, addend: 0x0, symName: __ZNKSt3__18ios_base5widthB7v160006Ev, symObjAddr: 0x26C4, symBinAddr: 0x1000094E0, symSize: 0x18 }
  - { offsetInCU: 0x94E6, offset: 0x36BAE, size: 0x8, addend: 0x0, symName: __ZNSt3__115basic_streambufIcNS_11char_traitsIcEEE5sgetcB7v160006Ev, symObjAddr: 0x26F0, symBinAddr: 0x1000094F8, symSize: 0x70 }
  - { offsetInCU: 0x950A, offset: 0x36BD2, size: 0x8, addend: 0x0, symName: __ZNKSt3__15ctypeIcE2isB7v160006Ejc, symObjAddr: 0x2760, symBinAddr: 0x100009568, symSize: 0x7C }
  - { offsetInCU: 0x954C, offset: 0x36C14, size: 0x8, addend: 0x0, symName: __ZNSt3__18ios_base5widthB7v160006El, symObjAddr: 0x27DC, symBinAddr: 0x1000095E4, symSize: 0x2C }
  - { offsetInCU: 0x9590, offset: 0x36C58, size: 0x8, addend: 0x0, symName: __Z7isasciii, symObjAddr: 0x2810, symBinAddr: 0x100009610, symSize: 0x24 }
  - { offsetInCU: 0x95BD, offset: 0x36C85, size: 0x8, addend: 0x0, symName: __ZNSt3__111char_traitsIcE7compareEPKcS3_m, symObjAddr: 0x285C, symBinAddr: 0x100009634, symSize: 0x6C }
  - { offsetInCU: 0x49, offset: 0x36D6A, size: 0x8, addend: 0x0, symName: __ZNSt3__1L19piecewise_constructE, symObjAddr: 0x1954, symBinAddr: 0x10000F855, symSize: 0x0 }
  - { offsetInCU: 0x2B93, offset: 0x398B4, size: 0x8, addend: 0x0, symName: __ZNSt3__116forward_as_tupleB7v160006IJRKiEEENS_5tupleIJDpOT_EEES6_, symObjAddr: 0x200, symBinAddr: 0x1000098D4, symSize: 0x2C }
  - { offsetInCU: 0x2BCC, offset: 0x398ED, size: 0x8, addend: 0x0, symName: __ZNSt3__116forward_as_tupleB7v160006IJEEENS_5tupleIJDpOT_EEES4_, symObjAddr: 0x22C, symBinAddr: 0x100009900, symSize: 0x4 }
  - { offsetInCU: 0x2C1B, offset: 0x3993C, size: 0x8, addend: 0x0, symName: __ZNSt3__13getB7v160006ILm0EJRKiEEERNS_13tuple_elementIXT_ENS_5tupleIJDpT0_EEEE4typeERS7_, symObjAddr: 0xE90, symBinAddr: 0x10000A44C, symSize: 0x24 }
  - { offsetInCU: 0x2C5E, offset: 0x3997F, size: 0x8, addend: 0x0, symName: __ZNSt3__127__tree_balance_after_insertB7v160006IPNS_16__tree_node_baseIPvEEEEvT_S5_, symObjAddr: 0xF54, symBinAddr: 0x10000A510, symSize: 0x32C }
  - { offsetInCU: 0x2CDC, offset: 0x399FD, size: 0x8, addend: 0x0, symName: __ZNSt3__118__tree_left_rotateB7v160006IPNS_16__tree_node_baseIPvEEEEvT_, symObjAddr: 0x12EC, symBinAddr: 0x10000A864, symSize: 0xD8 }
  - { offsetInCU: 0x2D1E, offset: 0x39A3F, size: 0x8, addend: 0x0, symName: __ZNSt3__119__tree_right_rotateB7v160006IPNS_16__tree_node_baseIPvEEEEvT_, symObjAddr: 0x13C4, symBinAddr: 0x10000A93C, symSize: 0xCC }
  - { offsetInCU: 0x4ECF, offset: 0x3BBF0, size: 0x8, addend: 0x0, symName: __ZN22ModifyRoomAvailability8bookRoomEiRNSt3__13mapIiP4RoomNS0_4lessIiEENS0_9allocatorINS0_4pairIKiS3_EEEEEE, symObjAddr: 0x0, symBinAddr: 0x1000096D4, symSize: 0x40 }
  - { offsetInCU: 0x4F02, offset: 0x3BC23, size: 0x8, addend: 0x0, symName: __ZNSt3__13mapIiP4RoomNS_4lessIiEENS_9allocatorINS_4pairIKiS2_EEEEEixERS7_, symObjAddr: 0x40, symBinAddr: 0x100009714, symSize: 0x80 }
  - { offsetInCU: 0x4F38, offset: 0x3BC59, size: 0x8, addend: 0x0, symName: __ZN22ModifyRoomAvailability10returnRoomEiRNSt3__13mapIiP4RoomNS0_4lessIiEENS0_9allocatorINS0_4pairIKiS3_EEEEEE, symObjAddr: 0xC0, symBinAddr: 0x100009794, symSize: 0x40 }
  - { offsetInCU: 0x4F7F, offset: 0x3BCA0, size: 0x8, addend: 0x0, symName: __ZNSt3__16__treeINS_12__value_typeIiP4RoomEENS_19__map_value_compareIiS4_NS_4lessIiEELb1EEENS_9allocatorIS4_EEE25__emplace_unique_key_argsIiJRKNS_21piecewise_construct_tENS_5tupleIJRKiEEENSG_IJEEEEEENS_4pairINS_15__tree_iteratorIS4_PNS_11__tree_nodeIS4_PvEElEEbEERKT_DpOT0_, symObjAddr: 0x100, symBinAddr: 0x1000097D4, symSize: 0x100 }
  - { offsetInCU: 0x5055, offset: 0x3BD76, size: 0x8, addend: 0x0, symName: __ZNKSt3__115__tree_iteratorINS_12__value_typeIiP4RoomEEPNS_11__tree_nodeIS4_PvEElEptB7v160006Ev, symObjAddr: 0x230, symBinAddr: 0x100009904, symSize: 0x2C }
  - { offsetInCU: 0x5079, offset: 0x3BD9A, size: 0x8, addend: 0x0, symName: __ZNSt3__112__value_typeIiP4RoomE11__get_valueB7v160006Ev, symObjAddr: 0x25C, symBinAddr: 0x100009930, symSize: 0x14 }
  - { offsetInCU: 0x509D, offset: 0x3BDBE, size: 0x8, addend: 0x0, symName: __ZNSt3__16__treeINS_12__value_typeIiP4RoomEENS_19__map_value_compareIiS4_NS_4lessIiEELb1EEENS_9allocatorIS4_EEE12__find_equalIiEERPNS_16__tree_node_baseIPvEERPNS_15__tree_end_nodeISG_EERKT_, symObjAddr: 0x270, symBinAddr: 0x100009944, symSize: 0x184 }
  - { offsetInCU: 0x5109, offset: 0x3BE2A, size: 0x8, addend: 0x0, symName: __ZNSt3__16__treeINS_12__value_typeIiP4RoomEENS_19__map_value_compareIiS4_NS_4lessIiEELb1EEENS_9allocatorIS4_EEE16__construct_nodeIJRKNS_21piecewise_construct_tENS_5tupleIJRKiEEENSG_IJEEEEEENS_10unique_ptrINS_11__tree_nodeIS4_PvEENS_22__tree_node_destructorINS9_ISO_EEEEEEDpOT_, symObjAddr: 0x3F4, symBinAddr: 0x100009AC8, symSize: 0x120 }
  - { offsetInCU: 0x5191, offset: 0x3BEB2, size: 0x8, addend: 0x0, symName: __ZNSt3__16__treeINS_12__value_typeIiP4RoomEENS_19__map_value_compareIiS4_NS_4lessIiEELb1EEENS_9allocatorIS4_EEE16__insert_node_atEPNS_15__tree_end_nodeIPNS_16__tree_node_baseIPvEEEERSG_SG_, symObjAddr: 0x514, symBinAddr: 0x100009BE8, symSize: 0xCC }
  - { offsetInCU: 0x51E5, offset: 0x3BF06, size: 0x8, addend: 0x0, symName: __ZNKSt3__110unique_ptrINS_11__tree_nodeINS_12__value_typeIiP4RoomEEPvEENS_22__tree_node_destructorINS_9allocatorIS7_EEEEE3getB7v160006Ev, symObjAddr: 0x5E0, symBinAddr: 0x100009CB4, symSize: 0x28 }
  - { offsetInCU: 0x5209, offset: 0x3BF2A, size: 0x8, addend: 0x0, symName: __ZNSt3__110unique_ptrINS_11__tree_nodeINS_12__value_typeIiP4RoomEEPvEENS_22__tree_node_destructorINS_9allocatorIS7_EEEEE7releaseB7v160006Ev, symObjAddr: 0x608, symBinAddr: 0x100009CDC, symSize: 0x44 }
  - { offsetInCU: 0x523C, offset: 0x3BF5D, size: 0x8, addend: 0x0, symName: __ZNSt3__110unique_ptrINS_11__tree_nodeINS_12__value_typeIiP4RoomEEPvEENS_22__tree_node_destructorINS_9allocatorIS7_EEEEED1B7v160006Ev, symObjAddr: 0x64C, symBinAddr: 0x100009D20, symSize: 0x2C }
  - { offsetInCU: 0x5264, offset: 0x3BF85, size: 0x8, addend: 0x0, symName: __ZNSt3__115__tree_iteratorINS_12__value_typeIiP4RoomEEPNS_11__tree_nodeIS4_PvEElEC1B7v160006ES8_, symObjAddr: 0x678, symBinAddr: 0x100009D4C, symSize: 0x34 }
  - { offsetInCU: 0x52A5, offset: 0x3BFC6, size: 0x8, addend: 0x0, symName: __ZNSt3__14pairINS_15__tree_iteratorINS_12__value_typeIiP4RoomEEPNS_11__tree_nodeIS5_PvEElEEbEC1B7v160006ISA_RbLS7_0EEEOT_OT0_, symObjAddr: 0x6AC, symBinAddr: 0x100009D80, symSize: 0x3C }
  - { offsetInCU: 0x5301, offset: 0x3C022, size: 0x8, addend: 0x0, symName: __ZNKSt3__16__treeINS_12__value_typeIiP4RoomEENS_19__map_value_compareIiS4_NS_4lessIiEELb1EEENS_9allocatorIS4_EEE6__rootB7v160006Ev, symObjAddr: 0x6E8, symBinAddr: 0x100009DBC, symSize: 0x28 }
  - { offsetInCU: 0x5325, offset: 0x3C046, size: 0x8, addend: 0x0, symName: __ZNKSt3__16__treeINS_12__value_typeIiP4RoomEENS_19__map_value_compareIiS4_NS_4lessIiEELb1EEENS_9allocatorIS4_EEE10__root_ptrEv, symObjAddr: 0x710, symBinAddr: 0x100009DE4, symSize: 0x24 }
  - { offsetInCU: 0x5349, offset: 0x3C06A, size: 0x8, addend: 0x0, symName: __ZNSt3__16__treeINS_12__value_typeIiP4RoomEENS_19__map_value_compareIiS4_NS_4lessIiEELb1EEENS_9allocatorIS4_EEE10value_compB7v160006Ev, symObjAddr: 0x734, symBinAddr: 0x100009E08, symSize: 0x28 }
  - { offsetInCU: 0x536D, offset: 0x3C08E, size: 0x8, addend: 0x0, symName: __ZNKSt3__119__map_value_compareIiNS_12__value_typeIiP4RoomEENS_4lessIiEELb1EEclB7v160006ERKiRKS4_, symObjAddr: 0x75C, symBinAddr: 0x100009E30, symSize: 0x50 }
  - { offsetInCU: 0x53AF, offset: 0x3C0D0, size: 0x8, addend: 0x0, symName: __ZNKSt3__119__map_value_compareIiNS_12__value_typeIiP4RoomEENS_4lessIiEELb1EEclB7v160006ERKS4_RKi, symObjAddr: 0x7AC, symBinAddr: 0x100009E80, symSize: 0x48 }
  - { offsetInCU: 0x53F1, offset: 0x3C112, size: 0x8, addend: 0x0, symName: __ZNSt3__16__treeINS_12__value_typeIiP4RoomEENS_19__map_value_compareIiS4_NS_4lessIiEELb1EEENS_9allocatorIS4_EEE10__end_nodeB7v160006Ev, symObjAddr: 0x7F4, symBinAddr: 0x100009EC8, symSize: 0x2C }
  - { offsetInCU: 0x5415, offset: 0x3C136, size: 0x8, addend: 0x0, symName: __ZNSt3__117__compressed_pairImNS_19__map_value_compareIiNS_12__value_typeIiP4RoomEENS_4lessIiEELb1EEEE6secondB7v160006Ev, symObjAddr: 0x898, symBinAddr: 0x100009EF4, symSize: 0x24 }
  - { offsetInCU: 0x5439, offset: 0x3C15A, size: 0x8, addend: 0x0, symName: __ZNSt3__122__compressed_pair_elemINS_19__map_value_compareIiNS_12__value_typeIiP4RoomEENS_4lessIiEELb1EEELi1ELb1EE5__getB7v160006Ev, symObjAddr: 0x8BC, symBinAddr: 0x100009F18, symSize: 0x14 }
  - { offsetInCU: 0x545D, offset: 0x3C17E, size: 0x8, addend: 0x0, symName: __ZNKSt3__14lessIiEclB7v160006ERKiS3_, symObjAddr: 0x8D0, symBinAddr: 0x100009F2C, symSize: 0x34 }
  - { offsetInCU: 0x549F, offset: 0x3C1C0, size: 0x8, addend: 0x0, symName: __ZNSt3__117__compressed_pairINS_15__tree_end_nodeIPNS_16__tree_node_baseIPvEEEENS_9allocatorINS_11__tree_nodeINS_12__value_typeIiP4RoomEES3_EEEEE5firstB7v160006Ev, symObjAddr: 0x918, symBinAddr: 0x100009F60, symSize: 0x24 }
  - { offsetInCU: 0x54C3, offset: 0x3C1E4, size: 0x8, addend: 0x0, symName: __ZNSt3__122__compressed_pair_elemINS_15__tree_end_nodeIPNS_16__tree_node_baseIPvEEEELi0ELb0EE5__getB7v160006Ev, symObjAddr: 0x93C, symBinAddr: 0x100009F84, symSize: 0x14 }
  - { offsetInCU: 0x54E7, offset: 0x3C208, size: 0x8, addend: 0x0, symName: __ZNSt3__16__treeINS_12__value_typeIiP4RoomEENS_19__map_value_compareIiS4_NS_4lessIiEELb1EEENS_9allocatorIS4_EEE12__node_allocB7v160006Ev, symObjAddr: 0x950, symBinAddr: 0x100009F98, symSize: 0x28 }
  - { offsetInCU: 0x550B, offset: 0x3C22C, size: 0x8, addend: 0x0, symName: __ZNSt3__116allocator_traitsINS_9allocatorINS_11__tree_nodeINS_12__value_typeIiP4RoomEEPvEEEEE8allocateB7v160006ERS9_m, symObjAddr: 0x978, symBinAddr: 0x100009FC0, symSize: 0x2C }
  - { offsetInCU: 0x553D, offset: 0x3C25E, size: 0x8, addend: 0x0, symName: __ZNSt3__122__tree_node_destructorINS_9allocatorINS_11__tree_nodeINS_12__value_typeIiP4RoomEEPvEEEEEC1B7v160006ERS9_b, symObjAddr: 0x9A4, symBinAddr: 0x100009FEC, symSize: 0x48 }
  - { offsetInCU: 0x5588, offset: 0x3C2A9, size: 0x8, addend: 0x0, symName: __ZNSt3__110unique_ptrINS_11__tree_nodeINS_12__value_typeIiP4RoomEEPvEENS_22__tree_node_destructorINS_9allocatorIS7_EEEEEC1B7v160006ILb1EvEEPS7_NS_16__dependent_typeINS_27__unique_ptr_deleter_sfinaeISB_EEXT_EE20__good_rval_ref_typeE, symObjAddr: 0x9EC, symBinAddr: 0x10000A034, symSize: 0x3C }
  - { offsetInCU: 0x55D7, offset: 0x3C2F8, size: 0x8, addend: 0x0, symName: __ZNSt3__116allocator_traitsINS_9allocatorINS_11__tree_nodeINS_12__value_typeIiP4RoomEEPvEEEEE9constructB7v160006INS_4pairIKiS5_EEJRKNS_21piecewise_construct_tENS_5tupleIJRSD_EEENSI_IJEEEEvEEvRS9_PT_DpOT0_, symObjAddr: 0xA28, symBinAddr: 0x10000A070, symSize: 0x44 }
  - { offsetInCU: 0x5655, offset: 0x3C376, size: 0x8, addend: 0x0, symName: __ZNSt3__122__tree_key_value_typesINS_12__value_typeIiP4RoomEEE9__get_ptrB7v160006ERS4_, symObjAddr: 0xA6C, symBinAddr: 0x10000A0B4, symSize: 0x24 }
  - { offsetInCU: 0x5678, offset: 0x3C399, size: 0x8, addend: 0x0, symName: __ZNKSt3__110unique_ptrINS_11__tree_nodeINS_12__value_typeIiP4RoomEEPvEENS_22__tree_node_destructorINS_9allocatorIS7_EEEEEptB7v160006Ev, symObjAddr: 0xA90, symBinAddr: 0x10000A0D8, symSize: 0x28 }
  - { offsetInCU: 0x569C, offset: 0x3C3BD, size: 0x8, addend: 0x0, symName: __ZNSt3__110unique_ptrINS_11__tree_nodeINS_12__value_typeIiP4RoomEEPvEENS_22__tree_node_destructorINS_9allocatorIS7_EEEEE11get_deleterB7v160006Ev, symObjAddr: 0xAB8, symBinAddr: 0x10000A100, symSize: 0x24 }
  - { offsetInCU: 0x56C0, offset: 0x3C3E1, size: 0x8, addend: 0x0, symName: __ZNSt3__117__compressed_pairINS_15__tree_end_nodeIPNS_16__tree_node_baseIPvEEEENS_9allocatorINS_11__tree_nodeINS_12__value_typeIiP4RoomEES3_EEEEE6secondB7v160006Ev, symObjAddr: 0xADC, symBinAddr: 0x10000A124, symSize: 0x24 }
  - { offsetInCU: 0x56E4, offset: 0x3C405, size: 0x8, addend: 0x0, symName: __ZNSt3__122__compressed_pair_elemINS_9allocatorINS_11__tree_nodeINS_12__value_typeIiP4RoomEEPvEEEELi1ELb1EE5__getB7v160006Ev, symObjAddr: 0xB00, symBinAddr: 0x10000A148, symSize: 0x14 }
  - { offsetInCU: 0x5708, offset: 0x3C429, size: 0x8, addend: 0x0, symName: __ZNSt3__19allocatorINS_11__tree_nodeINS_12__value_typeIiP4RoomEEPvEEE8allocateB7v160006Em, symObjAddr: 0xB14, symBinAddr: 0x10000A15C, symSize: 0x5C }
  - { offsetInCU: 0x5744, offset: 0x3C465, size: 0x8, addend: 0x0, symName: __ZNSt3__116allocator_traitsINS_9allocatorINS_11__tree_nodeINS_12__value_typeIiP4RoomEEPvEEEEE8max_sizeB7v160006IS9_vEEmRKS9_, symObjAddr: 0xB70, symBinAddr: 0x10000A1B8, symSize: 0x24 }
  - { offsetInCU: 0x5771, offset: 0x3C492, size: 0x8, addend: 0x0, symName: __ZNKSt3__19allocatorINS_11__tree_nodeINS_12__value_typeIiP4RoomEEPvEEE8max_sizeB7v160006Ev, symObjAddr: 0xBF0, symBinAddr: 0x10000A1DC, symSize: 0x18 }
  - { offsetInCU: 0x5795, offset: 0x3C4B6, size: 0x8, addend: 0x0, symName: __ZNSt3__122__tree_node_destructorINS_9allocatorINS_11__tree_nodeINS_12__value_typeIiP4RoomEEPvEEEEEC2B7v160006ERS9_b, symObjAddr: 0xC2C, symBinAddr: 0x10000A1F4, symSize: 0x38 }
  - { offsetInCU: 0x57DB, offset: 0x3C4FC, size: 0x8, addend: 0x0, symName: __ZNSt3__110unique_ptrINS_11__tree_nodeINS_12__value_typeIiP4RoomEEPvEENS_22__tree_node_destructorINS_9allocatorIS7_EEEEEC2B7v160006ILb1EvEEPS7_NS_16__dependent_typeINS_27__unique_ptr_deleter_sfinaeISB_EEXT_EE20__good_rval_ref_typeE, symObjAddr: 0xC64, symBinAddr: 0x10000A22C, symSize: 0x48 }
  - { offsetInCU: 0x582A, offset: 0x3C54B, size: 0x8, addend: 0x0, symName: __ZNSt3__117__compressed_pairIPNS_11__tree_nodeINS_12__value_typeIiP4RoomEEPvEENS_22__tree_node_destructorINS_9allocatorIS7_EEEEEC1B7v160006IRS8_SC_EEOT_OT0_, symObjAddr: 0xCAC, symBinAddr: 0x10000A274, symSize: 0x3C }
  - { offsetInCU: 0x5880, offset: 0x3C5A1, size: 0x8, addend: 0x0, symName: __ZNSt3__117__compressed_pairIPNS_11__tree_nodeINS_12__value_typeIiP4RoomEEPvEENS_22__tree_node_destructorINS_9allocatorIS7_EEEEEC2B7v160006IRS8_SC_EEOT_OT0_, symObjAddr: 0xCF4, symBinAddr: 0x10000A2B0, symSize: 0x48 }
  - { offsetInCU: 0x58D6, offset: 0x3C5F7, size: 0x8, addend: 0x0, symName: __ZNSt3__122__compressed_pair_elemIPNS_11__tree_nodeINS_12__value_typeIiP4RoomEEPvEELi0ELb0EEC2B7v160006IRS8_vEEOT_, symObjAddr: 0xD3C, symBinAddr: 0x10000A2F8, symSize: 0x24 }
  - { offsetInCU: 0x5916, offset: 0x3C637, size: 0x8, addend: 0x0, symName: __ZNSt3__122__compressed_pair_elemINS_22__tree_node_destructorINS_9allocatorINS_11__tree_nodeINS_12__value_typeIiP4RoomEEPvEEEEEELi1ELb0EEC2B7v160006ISB_vEEOT_, symObjAddr: 0xD60, symBinAddr: 0x10000A31C, symSize: 0x24 }
  - { offsetInCU: 0x5956, offset: 0x3C677, size: 0x8, addend: 0x0, symName: __ZNSt3__19allocatorINS_11__tree_nodeINS_12__value_typeIiP4RoomEEPvEEE9constructB7v160006INS_4pairIKiS4_EEJRKNS_21piecewise_construct_tENS_5tupleIJRSB_EEENSG_IJEEEEEEvPT_DpOT0_, symObjAddr: 0xD84, symBinAddr: 0x10000A340, symSize: 0x44 }
  - { offsetInCU: 0x59D0, offset: 0x3C6F1, size: 0x8, addend: 0x0, symName: __ZNSt3__14pairIKiP4RoomEC1B7v160006IJRS1_EJEEENS_21piecewise_construct_tENS_5tupleIJDpT_EEENS8_IJDpT0_EEE, symObjAddr: 0xDC8, symBinAddr: 0x10000A384, symSize: 0x44 }
  - { offsetInCU: 0x5A35, offset: 0x3C756, size: 0x8, addend: 0x0, symName: __ZNSt3__14pairIKiP4RoomEC1B7v160006IJRS1_EJEJLm0EEJEEENS_21piecewise_construct_tERNS_5tupleIJDpT_EEERNS8_IJDpT0_EEENS_15__tuple_indicesIJXspT1_EEEENSH_IJXspT2_EEEE, symObjAddr: 0xE0C, symBinAddr: 0x10000A3C8, symSize: 0x3C }
  - { offsetInCU: 0x5AC4, offset: 0x3C7E5, size: 0x8, addend: 0x0, symName: __ZNSt3__14pairIKiP4RoomEC2B7v160006IJRS1_EJEJLm0EEJEEENS_21piecewise_construct_tERNS_5tupleIJDpT_EEERNS8_IJDpT0_EEENS_15__tuple_indicesIJXspT1_EEEENSH_IJXspT2_EEEE, symObjAddr: 0xE48, symBinAddr: 0x10000A404, symSize: 0x48 }
  - { offsetInCU: 0x5B53, offset: 0x3C874, size: 0x8, addend: 0x0, symName: __ZNSt3__112__tuple_leafILm0ERKiLb0EE3getB7v160006Ev, symObjAddr: 0xEB4, symBinAddr: 0x10000A470, symSize: 0x18 }
  - { offsetInCU: 0x5B77, offset: 0x3C898, size: 0x8, addend: 0x0, symName: __ZNKSt3__117__compressed_pairIPNS_11__tree_nodeINS_12__value_typeIiP4RoomEEPvEENS_22__tree_node_destructorINS_9allocatorIS7_EEEEE5firstB7v160006Ev, symObjAddr: 0xECC, symBinAddr: 0x10000A488, symSize: 0x24 }
  - { offsetInCU: 0x5B9B, offset: 0x3C8BC, size: 0x8, addend: 0x0, symName: __ZNKSt3__122__compressed_pair_elemIPNS_11__tree_nodeINS_12__value_typeIiP4RoomEEPvEELi0ELb0EE5__getB7v160006Ev, symObjAddr: 0xEF0, symBinAddr: 0x10000A4AC, symSize: 0x14 }
  - { offsetInCU: 0x5BBF, offset: 0x3C8E0, size: 0x8, addend: 0x0, symName: __ZNSt3__117__compressed_pairIPNS_11__tree_nodeINS_12__value_typeIiP4RoomEEPvEENS_22__tree_node_destructorINS_9allocatorIS7_EEEEE6secondB7v160006Ev, symObjAddr: 0xF04, symBinAddr: 0x10000A4C0, symSize: 0x28 }
  - { offsetInCU: 0x5BE3, offset: 0x3C904, size: 0x8, addend: 0x0, symName: __ZNSt3__122__compressed_pair_elemINS_22__tree_node_destructorINS_9allocatorINS_11__tree_nodeINS_12__value_typeIiP4RoomEEPvEEEEEELi1ELb0EE5__getB7v160006Ev, symObjAddr: 0xF2C, symBinAddr: 0x10000A4E8, symSize: 0x14 }
  - { offsetInCU: 0x5C07, offset: 0x3C928, size: 0x8, addend: 0x0, symName: __ZNSt3__16__treeINS_12__value_typeIiP4RoomEENS_19__map_value_compareIiS4_NS_4lessIiEELb1EEENS_9allocatorIS4_EEE12__begin_nodeB7v160006Ev, symObjAddr: 0xF40, symBinAddr: 0x10000A4FC, symSize: 0x14 }
  - { offsetInCU: 0x5C2B, offset: 0x3C94C, size: 0x8, addend: 0x0, symName: __ZNSt3__16__treeINS_12__value_typeIiP4RoomEENS_19__map_value_compareIiS4_NS_4lessIiEELb1EEENS_9allocatorIS4_EEE4sizeB7v160006Ev, symObjAddr: 0x1280, symBinAddr: 0x10000A83C, symSize: 0x28 }
  - { offsetInCU: 0x5C4F, offset: 0x3C970, size: 0x8, addend: 0x0, symName: __ZNSt3__116__tree_node_baseIPvE12__set_parentB7v160006EPS2_, symObjAddr: 0x1490, symBinAddr: 0x10000AA08, symSize: 0x20 }
  - { offsetInCU: 0x5C82, offset: 0x3C9A3, size: 0x8, addend: 0x0, symName: __ZNSt3__117__compressed_pairImNS_19__map_value_compareIiNS_12__value_typeIiP4RoomEENS_4lessIiEELb1EEEE5firstB7v160006Ev, symObjAddr: 0x14B0, symBinAddr: 0x10000AA28, symSize: 0x24 }
  - { offsetInCU: 0x5CA6, offset: 0x3C9C7, size: 0x8, addend: 0x0, symName: __ZNSt3__122__compressed_pair_elemImLi0ELb0EE5__getB7v160006Ev, symObjAddr: 0x14D4, symBinAddr: 0x10000AA4C, symSize: 0x14 }
  - { offsetInCU: 0x5CCA, offset: 0x3C9EB, size: 0x8, addend: 0x0, symName: __ZNSt3__117__compressed_pairIPNS_11__tree_nodeINS_12__value_typeIiP4RoomEEPvEENS_22__tree_node_destructorINS_9allocatorIS7_EEEEE5firstB7v160006Ev, symObjAddr: 0x14E8, symBinAddr: 0x10000AA60, symSize: 0x24 }
  - { offsetInCU: 0x5CEE, offset: 0x3CA0F, size: 0x8, addend: 0x0, symName: __ZNSt3__122__compressed_pair_elemIPNS_11__tree_nodeINS_12__value_typeIiP4RoomEEPvEELi0ELb0EE5__getB7v160006Ev, symObjAddr: 0x150C, symBinAddr: 0x10000AA84, symSize: 0x14 }
  - { offsetInCU: 0x5D12, offset: 0x3CA33, size: 0x8, addend: 0x0, symName: __ZNSt3__110unique_ptrINS_11__tree_nodeINS_12__value_typeIiP4RoomEEPvEENS_22__tree_node_destructorINS_9allocatorIS7_EEEEED2B7v160006Ev, symObjAddr: 0x1520, symBinAddr: 0x10000AA98, symSize: 0x30 }
  - { offsetInCU: 0x5D3A, offset: 0x3CA5B, size: 0x8, addend: 0x0, symName: __ZNSt3__110unique_ptrINS_11__tree_nodeINS_12__value_typeIiP4RoomEEPvEENS_22__tree_node_destructorINS_9allocatorIS7_EEEEE5resetB7v160006EPS7_, symObjAddr: 0x1550, symBinAddr: 0x10000AAC8, symSize: 0x78 }
  - { offsetInCU: 0x5D7C, offset: 0x3CA9D, size: 0x8, addend: 0x0, symName: __ZNSt3__122__tree_node_destructorINS_9allocatorINS_11__tree_nodeINS_12__value_typeIiP4RoomEEPvEEEEEclB7v160006EPS8_, symObjAddr: 0x15C8, symBinAddr: 0x10000AB40, symSize: 0x98 }
  - { offsetInCU: 0x5DAF, offset: 0x3CAD0, size: 0x8, addend: 0x0, symName: __ZNSt3__116allocator_traitsINS_9allocatorINS_11__tree_nodeINS_12__value_typeIiP4RoomEEPvEEEEE7destroyB7v160006INS_4pairIKiS5_EEvvEEvRS9_PT_, symObjAddr: 0x1660, symBinAddr: 0x10000ABD8, symSize: 0x14 }
  - { offsetInCU: 0x5DEA, offset: 0x3CB0B, size: 0x8, addend: 0x0, symName: __ZNSt3__116allocator_traitsINS_9allocatorINS_11__tree_nodeINS_12__value_typeIiP4RoomEEPvEEEEE10deallocateB7v160006ERS9_PS8_m, symObjAddr: 0x1674, symBinAddr: 0x10000ABEC, symSize: 0x34 }
  - { offsetInCU: 0x5E2B, offset: 0x3CB4C, size: 0x8, addend: 0x0, symName: __ZNSt3__19allocatorINS_11__tree_nodeINS_12__value_typeIiP4RoomEEPvEEE10deallocateB7v160006EPS7_m, symObjAddr: 0x16A8, symBinAddr: 0x10000AC20, symSize: 0x44 }
  - { offsetInCU: 0x5E6B, offset: 0x3CB8C, size: 0x8, addend: 0x0, symName: __ZNSt3__115__tree_iteratorINS_12__value_typeIiP4RoomEEPNS_11__tree_nodeIS4_PvEElEC2B7v160006ES8_, symObjAddr: 0x1768, symBinAddr: 0x10000AC64, symSize: 0x20 }
  - { offsetInCU: 0x5EA2, offset: 0x3CBC3, size: 0x8, addend: 0x0, symName: __ZNSt3__14pairINS_15__tree_iteratorINS_12__value_typeIiP4RoomEEPNS_11__tree_nodeIS5_PvEElEEbEC2B7v160006ISA_RbLS7_0EEEOT_OT0_, symObjAddr: 0x1788, symBinAddr: 0x10000AC84, symSize: 0x38 }
  - { offsetInCU: 0x5EFE, offset: 0x3CC1F, size: 0x8, addend: 0x0, symName: __ZNSt3__15tupleIJRKiEEC1B7v160006INS_4_AndELi0EEES2_, symObjAddr: 0x17C0, symBinAddr: 0x10000ACBC, symSize: 0x34 }
  - { offsetInCU: 0x5F45, offset: 0x3CC66, size: 0x8, addend: 0x0, symName: __ZNSt3__15tupleIJRKiEEC2B7v160006INS_4_AndELi0EEES2_, symObjAddr: 0x17F4, symBinAddr: 0x10000ACF0, symSize: 0x34 }
  - { offsetInCU: 0x5F8C, offset: 0x3CCAD, size: 0x8, addend: 0x0, symName: __ZNSt3__112__tuple_implINS_15__tuple_indicesIJLm0EEEEJRKiEEC1B7v160006IJLm0EEJS4_EJEJEJS4_EEENS1_IJXspT_EEEENS_13__tuple_typesIJDpT0_EEENS1_IJXspT1_EEEENS8_IJDpT2_EEEDpOT3_, symObjAddr: 0x1828, symBinAddr: 0x10000AD24, symSize: 0x34 }
  - { offsetInCU: 0x601F, offset: 0x3CD40, size: 0x8, addend: 0x0, symName: __ZNSt3__112__tuple_implINS_15__tuple_indicesIJLm0EEEEJRKiEEC2B7v160006IJLm0EEJS4_EJEJEJS4_EEENS1_IJXspT_EEEENS_13__tuple_typesIJDpT0_EEENS1_IJXspT1_EEEENS8_IJDpT2_EEEDpOT3_, symObjAddr: 0x185C, symBinAddr: 0x10000AD58, symSize: 0x34 }
  - { offsetInCU: 0x60B2, offset: 0x3CDD3, size: 0x8, addend: 0x0, symName: __ZNSt3__112__tuple_leafILm0ERKiLb0EEC2B7v160006IS2_vEEOT_, symObjAddr: 0x1890, symBinAddr: 0x10000AD8C, symSize: 0x20 }
  - { offsetInCU: 0x60F3, offset: 0x3CE14, size: 0x8, addend: 0x0, symName: __ZNSt3__114pointer_traitsIPNS_12__value_typeIiP4RoomEEE10pointer_toB7v160006ERS4_, symObjAddr: 0x18B0, symBinAddr: 0x10000ADAC, symSize: 0x14 }
  - { offsetInCU: 0x6116, offset: 0x3CE37, size: 0x8, addend: 0x0, symName: __ZNKSt3__115__tree_iteratorINS_12__value_typeIiP4RoomEEPNS_11__tree_nodeIS4_PvEElE8__get_npB7v160006Ev, symObjAddr: 0x18C4, symBinAddr: 0x10000ADC0, symSize: 0x18 }
  - { offsetInCU: 0x2EE7, offset: 0x3FD9C, size: 0x8, addend: 0x0, symName: __ZNSt3__124__put_character_sequenceB7v160006IcNS_11char_traitsIcEEEERNS_13basic_ostreamIT_T0_EES7_PKS4_m, symObjAddr: 0x2934, symBinAddr: 0x10000B8FC, symSize: 0x1EC }
  - { offsetInCU: 0x5084, offset: 0x41F39, size: 0x8, addend: 0x0, symName: __ZNSt3__1lsB7v160006INS_11char_traitsIcEEEERNS_13basic_ostreamIcT_EES6_PKc, symObjAddr: 0xABC, symBinAddr: 0x10000B0D4, symSize: 0x48 }
  - { offsetInCU: 0x50CA, offset: 0x41F7F, size: 0x8, addend: 0x0, symName: __ZNSt3__1lsB7v160006IcNS_11char_traitsIcEENS_9allocatorIcEEEERNS_13basic_ostreamIT_T0_EES9_RKNS_12basic_stringIS6_S7_T1_EE, symObjAddr: 0xB04, symBinAddr: 0x10000B11C, symSize: 0x4C }
  - { offsetInCU: 0x5122, offset: 0x41FD7, size: 0x8, addend: 0x0, symName: __ZNSt3__14endlB7v160006IcNS_11char_traitsIcEEEERNS_13basic_ostreamIT_T0_EES7_, symObjAddr: 0xB7C, symBinAddr: 0x10000B194, symSize: 0x58 }
  - { offsetInCU: 0x5178, offset: 0x4202D, size: 0x8, addend: 0x0, symName: __ZNSt3__1lsB7v160006INS_11char_traitsIcEEEERNS_13basic_ostreamIcT_EES6_h, symObjAddr: 0x1388, symBinAddr: 0x10000B8C8, symSize: 0x34 }
  - { offsetInCU: 0x51BE, offset: 0x42073, size: 0x8, addend: 0x0, symName: __ZNSt3__116__pad_and_outputB7v160006IcNS_11char_traitsIcEEEENS_19ostreambuf_iteratorIT_T0_EES6_PKS4_S8_S8_RNS_8ios_baseES4_, symObjAddr: 0x2B3C, symBinAddr: 0x10000BB04, symSize: 0x240 }
  - { offsetInCU: 0x7712, offset: 0x445C7, size: 0x8, addend: 0x0, symName: __ZN9StoreData14userInDatabaseER4User, symObjAddr: 0x0, symBinAddr: 0x10000ADD8, symSize: 0x2FC }
  - { offsetInCU: 0x78C2, offset: 0x44777, size: 0x8, addend: 0x0, symName: __ZNSt3__113basic_ostreamIcNS_11char_traitsIcEEElsB7v160006EPFRS3_S4_E, symObjAddr: 0xB50, symBinAddr: 0x10000B168, symSize: 0x2C }
  - { offsetInCU: 0x78FD, offset: 0x447B2, size: 0x8, addend: 0x0, symName: __ZN9StoreData9storeUserER4User, symObjAddr: 0xCAC, symBinAddr: 0x10000B1EC, symSize: 0x6DC }
  - { offsetInCU: 0x7999, offset: 0x4484E, size: 0x8, addend: 0x0, symName: __ZNKSt3__113basic_ostreamIcNS_11char_traitsIcEEE6sentrycvbB7v160006Ev, symObjAddr: 0x2B20, symBinAddr: 0x10000BAE8, symSize: 0x1C }
  - { offsetInCU: 0x79BD, offset: 0x44872, size: 0x8, addend: 0x0, symName: __ZNSt3__119ostreambuf_iteratorIcNS_11char_traitsIcEEEC1B7v160006ERNS_13basic_ostreamIcS2_EE, symObjAddr: 0x2D7C, symBinAddr: 0x10000BD44, symSize: 0x34 }
  - { offsetInCU: 0x79F3, offset: 0x448A8, size: 0x8, addend: 0x0, symName: __ZNKSt3__18ios_base5flagsB7v160006Ev, symObjAddr: 0x2DB0, symBinAddr: 0x10000BD78, symSize: 0x18 }
  - { offsetInCU: 0x7A19, offset: 0x448CE, size: 0x8, addend: 0x0, symName: __ZNKSt3__19basic_iosIcNS_11char_traitsIcEEE4fillB7v160006Ev, symObjAddr: 0x2DC8, symBinAddr: 0x10000BD90, symSize: 0x64 }
  - { offsetInCU: 0x7A41, offset: 0x448F6, size: 0x8, addend: 0x0, symName: __ZNKSt3__119ostreambuf_iteratorIcNS_11char_traitsIcEEE6failedB7v160006Ev, symObjAddr: 0x2E2C, symBinAddr: 0x10000BDF4, symSize: 0x24 }
  - { offsetInCU: 0x7A65, offset: 0x4491A, size: 0x8, addend: 0x0, symName: __ZNSt3__115basic_streambufIcNS_11char_traitsIcEEE5sputnB7v160006EPKcl, symObjAddr: 0x2E50, symBinAddr: 0x10000BE18, symSize: 0x3C }
  - { offsetInCU: 0x7AA5, offset: 0x4495A, size: 0x8, addend: 0x0, symName: __ZNSt3__112basic_stringIcNS_11char_traitsIcEENS_9allocatorIcEEEC1B7v160006Emc, symObjAddr: 0x2E8C, symBinAddr: 0x10000BE54, symSize: 0x3C }
  - { offsetInCU: 0x7AEB, offset: 0x449A0, size: 0x8, addend: 0x0, symName: __ZNSt3__112basic_stringIcNS_11char_traitsIcEENS_9allocatorIcEEEC2B7v160006Emc, symObjAddr: 0x2EC8, symBinAddr: 0x10000BE90, symSize: 0x54 }
  - { offsetInCU: 0x7B31, offset: 0x449E6, size: 0x8, addend: 0x0, symName: __ZNSt3__119ostreambuf_iteratorIcNS_11char_traitsIcEEEC2B7v160006ERNS_13basic_ostreamIcS2_EE, symObjAddr: 0x2F1C, symBinAddr: 0x10000BEE4, symSize: 0x54 }
  - { offsetInCU: 0x4C, offset: 0x44A85, size: 0x8, addend: 0x0, symName: __ZN8MainMenu13SECTION_BREAKE, symObjAddr: 0x26C30, symBinAddr: 0x100014000, symSize: 0x0 }
  - { offsetInCU: 0x34ED, offset: 0x47F26, size: 0x8, addend: 0x0, symName: __ZNSt3__1rsB7v160006IcNS_11char_traitsIcEEEERNS_13basic_istreamIT_T0_EES7_RKNS_8__iom_t9IS4_EE, symObjAddr: 0x1B80, symBinAddr: 0x10000D46C, symSize: 0x1C0 }
  - { offsetInCU: 0x3CB4, offset: 0x486ED, size: 0x8, addend: 0x0, symName: __ZNSt3__1lsB7v160006IcNS_11char_traitsIcEEEERNS_13basic_ostreamIT_T0_EES7_RKNS_9__iom_t10IS4_EE, symObjAddr: 0x1E7C, symBinAddr: 0x10000D768, symSize: 0x200 }
  - { offsetInCU: 0x482F, offset: 0x49268, size: 0x8, addend: 0x0, symName: __ZNSt3__1lsB7v160006IcNS_11char_traitsIcEEEERNS_13basic_ostreamIT_T0_EES7_RKNS_8__iom_t6E, symObjAddr: 0x144, symBinAddr: 0x10000BFB4, symSize: 0x40 }
  - { offsetInCU: 0x487E, offset: 0x492B7, size: 0x8, addend: 0x0, symName: __ZNSt3__14setwB7v160006Ei, symObjAddr: 0x184, symBinAddr: 0x10000BFF4, symSize: 0x2C }
  - { offsetInCU: 0x48AC, offset: 0x492E5, size: 0x8, addend: 0x0, symName: __ZNSt3__15rightB7v160006ERNS_8ios_baseE, symObjAddr: 0x1F0, symBinAddr: 0x10000C060, symSize: 0x30 }
  - { offsetInCU: 0x48DA, offset: 0x49313, size: 0x8, addend: 0x0, symName: __ZNSt3__14leftB7v160006ERNS_8ios_baseE, symObjAddr: 0x590, symBinAddr: 0x10000C37C, symSize: 0x30 }
  - { offsetInCU: 0x4908, offset: 0x49341, size: 0x8, addend: 0x0, symName: __ZNSt3__1rsB7v160006INS_11char_traitsIcEEEERNS_13basic_istreamIcT_EES6_Rh, symObjAddr: 0xEB0, symBinAddr: 0x10000C910, symSize: 0x2C }
  - { offsetInCU: 0x494E, offset: 0x49387, size: 0x8, addend: 0x0, symName: __ZNSt3__18get_timeB7v160006IcEENS_8__iom_t9IT_EEP2tmPKS2_, symObjAddr: 0x1D40, symBinAddr: 0x10000D62C, symSize: 0x38 }
  - { offsetInCU: 0x4CDE, offset: 0x49717, size: 0x8, addend: 0x0, symName: __ZNSt3__18put_timeB7v160006IcEENS_9__iom_t10IT_EEPK2tmPKS2_, symObjAddr: 0x207C, symBinAddr: 0x10000D968, symSize: 0x38 }
  - { offsetInCU: 0x4D2F, offset: 0x49768, size: 0x8, addend: 0x0, symName: __ZNSt3__1rsB7v160006IcNS_11char_traitsIcEEEERNS_13basic_istreamIT_T0_EES7_RS4_, symObjAddr: 0x36E8, symBinAddr: 0x10000DB68, symSize: 0x18C }
  - { offsetInCU: 0x4DF9, offset: 0x49832, size: 0x8, addend: 0x0, symName: __ZNSt3__19use_facetB7v160006INS_8time_getIcNS_19istreambuf_iteratorIcNS_11char_traitsIcEEEEEEEERKT_RKNS_6localeE, symObjAddr: 0x397C, symBinAddr: 0x10000DD5C, symSize: 0x2C }
  - { offsetInCU: 0x4E77, offset: 0x498B0, size: 0x8, addend: 0x0, symName: __ZNSt3__19use_facetB7v160006INS_8time_putIcNS_19ostreambuf_iteratorIcNS_11char_traitsIcEEEEEEEERKT_RKNS_6localeE, symObjAddr: 0x3D60, symBinAddr: 0x10000DF50, symSize: 0x2C }
  - { offsetInCU: 0x5E22, offset: 0x4A85B, size: 0x8, addend: 0x0, symName: __Z7toloweri, symObjAddr: 0xEDC, symBinAddr: 0x10000C93C, symSize: 0x24 }
  - { offsetInCU: 0x7A57, offset: 0x4C490, size: 0x8, addend: 0x0, symName: __ZN8MainMenu6headerEv, symObjAddr: 0x34, symBinAddr: 0x10000BF38, symSize: 0x7C }
  - { offsetInCU: 0x7A6D, offset: 0x4C4A6, size: 0x8, addend: 0x0, symName: __ZNSt3__113basic_ostreamIcNS_11char_traitsIcEEElsB7v160006EPFRNS_8ios_baseES5_E, symObjAddr: 0x1B0, symBinAddr: 0x10000C020, symSize: 0x40 }
  - { offsetInCU: 0x7A9F, offset: 0x4C4D8, size: 0x8, addend: 0x0, symName: __ZN8MainMenu11clearScreenEv, symObjAddr: 0x2A4, symBinAddr: 0x10000C090, symSize: 0x5C }
  - { offsetInCU: 0x7AD3, offset: 0x4C50C, size: 0x8, addend: 0x0, symName: __ZN8MainMenu9StartMenuEv, symObjAddr: 0x300, symBinAddr: 0x10000C0EC, symSize: 0x290 }
  - { offsetInCU: 0x7AF8, offset: 0x4C531, size: 0x8, addend: 0x0, symName: __ZN8MainMenu17accountCreateMenuEv, symObjAddr: 0x614, symBinAddr: 0x10000C3AC, symSize: 0x18C }
  - { offsetInCU: 0x7B1D, offset: 0x4C556, size: 0x8, addend: 0x0, symName: __ZN8MainMenu9loginMenuEv, symObjAddr: 0x7C8, symBinAddr: 0x10000C560, symSize: 0x3B0 }
  - { offsetInCU: 0x7B6E, offset: 0x4C5A7, size: 0x8, addend: 0x0, symName: __ZN8MainMenu19genericUserCreationEv, symObjAddr: 0xF2C, symBinAddr: 0x10000C960, symSize: 0xB0C }
  - { offsetInCU: 0x7CB1, offset: 0x4C6EA, size: 0x8, addend: 0x0, symName: __ZNSt3__118basic_stringstreamIcNS_11char_traitsIcEENS_9allocatorIcEEEC1B7v160006Ev, symObjAddr: 0x1D78, symBinAddr: 0x10000D664, symSize: 0x104 }
  - { offsetInCU: 0x7CDE, offset: 0x4C717, size: 0x8, addend: 0x0, symName: __ZNSt3__118basic_stringstreamIcNS_11char_traitsIcEENS_9allocatorIcEEED1Ev, symObjAddr: 0x20B4, symBinAddr: 0x10000D9A0, symSize: 0x40 }
  - { offsetInCU: 0x7D0A, offset: 0x4C743, size: 0x8, addend: 0x0, symName: __ZNSt3__18__iom_t6C1B7v160006Ei, symObjAddr: 0x2120, symBinAddr: 0x10000D9E0, symSize: 0x34 }
  - { offsetInCU: 0x7D40, offset: 0x4C779, size: 0x8, addend: 0x0, symName: __ZNSt3__18__iom_t6C2B7v160006Ei, symObjAddr: 0x2154, symBinAddr: 0x10000DA14, symSize: 0x20 }
  - { offsetInCU: 0x7D76, offset: 0x4C7AF, size: 0x8, addend: 0x0, symName: __ZNSt3__18ios_base4setfB7v160006Ejj, symObjAddr: 0x2174, symBinAddr: 0x10000DA34, symSize: 0x5C }
  - { offsetInCU: 0x7DCA, offset: 0x4C803, size: 0x8, addend: 0x0, symName: __ZNSt3__18ios_base6unsetfB7v160006Ej, symObjAddr: 0x21D0, symBinAddr: 0x10000DA90, symSize: 0x28 }
  - { offsetInCU: 0x7E00, offset: 0x4C839, size: 0x8, addend: 0x0, symName: __ZNSt3__118basic_stringstreamIcNS_11char_traitsIcEENS_9allocatorIcEEED2Ev, symObjAddr: 0x2304, symBinAddr: 0x10000DAB8, symSize: 0x6C }
  - { offsetInCU: 0x7E38, offset: 0x4C871, size: 0x8, addend: 0x0, symName: __ZThn16_NSt3__118basic_stringstreamIcNS_11char_traitsIcEENS_9allocatorIcEEED1Ev, symObjAddr: 0x2370, symBinAddr: 0x10000DB24, symSize: 0x1C }
  - { offsetInCU: 0x7E4F, offset: 0x4C888, size: 0x8, addend: 0x0, symName: __ZTv0_n24_NSt3__118basic_stringstreamIcNS_11char_traitsIcEENS_9allocatorIcEEED1Ev, symObjAddr: 0x238C, symBinAddr: 0x10000DB40, symSize: 0x28 }
  - { offsetInCU: 0x7EB1, offset: 0x4C8EA, size: 0x8, addend: 0x0, symName: __ZNSt3__18__iom_t9IcEC1B7v160006EP2tmPKc, symObjAddr: 0x3914, symBinAddr: 0x10000DCF4, symSize: 0x3C }
  - { offsetInCU: 0x7EF7, offset: 0x4C930, size: 0x8, addend: 0x0, symName: __ZNSt3__18__iom_t9IcEC2B7v160006EP2tmPKc, symObjAddr: 0x3950, symBinAddr: 0x10000DD30, symSize: 0x2C }
  - { offsetInCU: 0x7F3D, offset: 0x4C976, size: 0x8, addend: 0x0, symName: __ZNSt3__119istreambuf_iteratorIcNS_11char_traitsIcEEEC1B7v160006ERNS_13basic_istreamIcS2_EE, symObjAddr: 0x39A8, symBinAddr: 0x10000DD88, symSize: 0x34 }
  - { offsetInCU: 0x7F73, offset: 0x4C9AC, size: 0x8, addend: 0x0, symName: __ZNSt3__119istreambuf_iteratorIcNS_11char_traitsIcEEEC1B7v160006Ev, symObjAddr: 0x39DC, symBinAddr: 0x10000DDBC, symSize: 0x2C }
  - { offsetInCU: 0x7F9B, offset: 0x4C9D4, size: 0x8, addend: 0x0, symName: __ZNSt3__119istreambuf_iteratorIcNS_11char_traitsIcEEEC2B7v160006ERNS_13basic_istreamIcS2_EE, symObjAddr: 0x3A08, symBinAddr: 0x10000DDE8, symSize: 0x54 }
  - { offsetInCU: 0x7FD1, offset: 0x4CA0A, size: 0x8, addend: 0x0, symName: __ZNSt3__119istreambuf_iteratorIcNS_11char_traitsIcEEEC2B7v160006Ev, symObjAddr: 0x3A5C, symBinAddr: 0x10000DE3C, symSize: 0x18 }
  - { offsetInCU: 0x7FF9, offset: 0x4CA32, size: 0x8, addend: 0x0, symName: __ZNSt3__115basic_stringbufIcNS_11char_traitsIcEENS_9allocatorIcEEEC1B7v160006Ej, symObjAddr: 0x3B64, symBinAddr: 0x10000DE54, symSize: 0x34 }
  - { offsetInCU: 0x802F, offset: 0x4CA68, size: 0x8, addend: 0x0, symName: __ZNSt3__115basic_stringbufIcNS_11char_traitsIcEENS_9allocatorIcEEEC2B7v160006Ej, symObjAddr: 0x3C98, symBinAddr: 0x10000DE88, symSize: 0x60 }
  - { offsetInCU: 0x806A, offset: 0x4CAA3, size: 0x8, addend: 0x0, symName: __ZNSt3__19__iom_t10IcEC1B7v160006EPK2tmPKc, symObjAddr: 0x3CF8, symBinAddr: 0x10000DEE8, symSize: 0x3C }
  - { offsetInCU: 0x80B0, offset: 0x4CAE9, size: 0x8, addend: 0x0, symName: __ZNSt3__19__iom_t10IcEC2B7v160006EPK2tmPKc, symObjAddr: 0x3D34, symBinAddr: 0x10000DF24, symSize: 0x2C }
  - { offsetInCU: 0x4A39, offset: 0x51660, size: 0x8, addend: 0x0, symName: __ZN9PatientUI15accountCreationEv, symObjAddr: 0x0, symBinAddr: 0x10000DFD8, symSize: 0x3E4 }
...
